
Project_MazeSolver_CubeIDE.elf:     file format elf32-littlearm

Sections:
Idx Name          Size      VMA       LMA       File off  Algn
  0 .isr_vector   00000194  08000000  08000000  00010000  2**0
                  CONTENTS, ALLOC, LOAD, READONLY, DATA
  1 .text         00002334  08000198  08000198  00010198  2**3
                  CONTENTS, ALLOC, LOAD, READONLY, CODE
  2 .rodata       00000024  080024cc  080024cc  000124cc  2**2
                  CONTENTS, ALLOC, LOAD, READONLY, DATA
  3 .ARM.extab    00000000  080024f0  080024f0  000124f8  2**0
                  CONTENTS
  4 .ARM          00000000  080024f0  080024f0  000124f8  2**0
                  CONTENTS
  5 .preinit_array 00000000  080024f0  080024f8  000124f8  2**0
                  CONTENTS, ALLOC, LOAD, DATA
  6 .init_array   00000004  080024f0  080024f0  000124f0  2**2
                  CONTENTS, ALLOC, LOAD, DATA
  7 .fini_array   00000004  080024f4  080024f4  000124f4  2**2
                  CONTENTS, ALLOC, LOAD, DATA
  8 .data         00000000  20000000  20000000  000124f8  2**0
                  CONTENTS, ALLOC, LOAD, DATA
  9 .bss          00000088  20000000  080024f8  00020000  2**2
                  ALLOC
 10 ._user_heap_stack 00000600  20000088  080024f8  00020088  2**0
                  ALLOC
 11 .ARM.attributes 00000030  00000000  00000000  000124f8  2**0
                  CONTENTS, READONLY
 12 .comment      00000043  00000000  00000000  00012528  2**0
                  CONTENTS, READONLY
 13 .debug_info   00002cec  00000000  00000000  0001256b  2**0
                  CONTENTS, READONLY, DEBUGGING, OCTETS
 14 .debug_abbrev 00000b68  00000000  00000000  00015257  2**0
                  CONTENTS, READONLY, DEBUGGING, OCTETS
 15 .debug_aranges 00000358  00000000  00000000  00015dc0  2**3
                  CONTENTS, READONLY, DEBUGGING, OCTETS
 16 .debug_rnglists 00000263  00000000  00000000  00016118  2**0
                  CONTENTS, READONLY, DEBUGGING, OCTETS
 17 .debug_macro  00001a71  00000000  00000000  0001637b  2**0
                  CONTENTS, READONLY, DEBUGGING, OCTETS
 18 .debug_line   0000164b  00000000  00000000  00017dec  2**0
                  CONTENTS, READONLY, DEBUGGING, OCTETS
 19 .debug_str    000083be  00000000  00000000  00019437  2**0
                  CONTENTS, READONLY, DEBUGGING, OCTETS
 20 .debug_frame  00000ccc  00000000  00000000  000217f8  2**2
                  CONTENTS, READONLY, DEBUGGING, OCTETS
 21 .debug_line_str 0000006f  00000000  00000000  000224c4  2**0
                  CONTENTS, READONLY, DEBUGGING, OCTETS

Disassembly of section .text:

08000198 <__do_global_dtors_aux>:
 8000198:	b510      	push	{r4, lr}
 800019a:	4c05      	ldr	r4, [pc, #20]	; (80001b0 <__do_global_dtors_aux+0x18>)
 800019c:	7823      	ldrb	r3, [r4, #0]
 800019e:	b933      	cbnz	r3, 80001ae <__do_global_dtors_aux+0x16>
 80001a0:	4b04      	ldr	r3, [pc, #16]	; (80001b4 <__do_global_dtors_aux+0x1c>)
 80001a2:	b113      	cbz	r3, 80001aa <__do_global_dtors_aux+0x12>
 80001a4:	4804      	ldr	r0, [pc, #16]	; (80001b8 <__do_global_dtors_aux+0x20>)
 80001a6:	f3af 8000 	nop.w
 80001aa:	2301      	movs	r3, #1
 80001ac:	7023      	strb	r3, [r4, #0]
 80001ae:	bd10      	pop	{r4, pc}
 80001b0:	20000000 	.word	0x20000000
 80001b4:	00000000 	.word	0x00000000
 80001b8:	080024b4 	.word	0x080024b4

080001bc <frame_dummy>:
 80001bc:	b508      	push	{r3, lr}
 80001be:	4b03      	ldr	r3, [pc, #12]	; (80001cc <frame_dummy+0x10>)
 80001c0:	b11b      	cbz	r3, 80001ca <frame_dummy+0xe>
 80001c2:	4903      	ldr	r1, [pc, #12]	; (80001d0 <frame_dummy+0x14>)
 80001c4:	4803      	ldr	r0, [pc, #12]	; (80001d4 <frame_dummy+0x18>)
 80001c6:	f3af 8000 	nop.w
 80001ca:	bd08      	pop	{r3, pc}
 80001cc:	00000000 	.word	0x00000000
 80001d0:	20000004 	.word	0x20000004
 80001d4:	080024b4 	.word	0x080024b4

080001d8 <__aeabi_drsub>:
 80001d8:	f081 4100 	eor.w	r1, r1, #2147483648	; 0x80000000
 80001dc:	e002      	b.n	80001e4 <__adddf3>
 80001de:	bf00      	nop

080001e0 <__aeabi_dsub>:
 80001e0:	f083 4300 	eor.w	r3, r3, #2147483648	; 0x80000000

080001e4 <__adddf3>:
 80001e4:	b530      	push	{r4, r5, lr}
 80001e6:	ea4f 0441 	mov.w	r4, r1, lsl #1
 80001ea:	ea4f 0543 	mov.w	r5, r3, lsl #1
 80001ee:	ea94 0f05 	teq	r4, r5
 80001f2:	bf08      	it	eq
 80001f4:	ea90 0f02 	teqeq	r0, r2
 80001f8:	bf1f      	itttt	ne
 80001fa:	ea54 0c00 	orrsne.w	ip, r4, r0
 80001fe:	ea55 0c02 	orrsne.w	ip, r5, r2
 8000202:	ea7f 5c64 	mvnsne.w	ip, r4, asr #21
 8000206:	ea7f 5c65 	mvnsne.w	ip, r5, asr #21
 800020a:	f000 80e2 	beq.w	80003d2 <__adddf3+0x1ee>
 800020e:	ea4f 5454 	mov.w	r4, r4, lsr #21
 8000212:	ebd4 5555 	rsbs	r5, r4, r5, lsr #21
 8000216:	bfb8      	it	lt
 8000218:	426d      	neglt	r5, r5
 800021a:	dd0c      	ble.n	8000236 <__adddf3+0x52>
 800021c:	442c      	add	r4, r5
 800021e:	ea80 0202 	eor.w	r2, r0, r2
 8000222:	ea81 0303 	eor.w	r3, r1, r3
 8000226:	ea82 0000 	eor.w	r0, r2, r0
 800022a:	ea83 0101 	eor.w	r1, r3, r1
 800022e:	ea80 0202 	eor.w	r2, r0, r2
 8000232:	ea81 0303 	eor.w	r3, r1, r3
 8000236:	2d36      	cmp	r5, #54	; 0x36
 8000238:	bf88      	it	hi
 800023a:	bd30      	pophi	{r4, r5, pc}
 800023c:	f011 4f00 	tst.w	r1, #2147483648	; 0x80000000
 8000240:	ea4f 3101 	mov.w	r1, r1, lsl #12
 8000244:	f44f 1c80 	mov.w	ip, #1048576	; 0x100000
 8000248:	ea4c 3111 	orr.w	r1, ip, r1, lsr #12
 800024c:	d002      	beq.n	8000254 <__adddf3+0x70>
 800024e:	4240      	negs	r0, r0
 8000250:	eb61 0141 	sbc.w	r1, r1, r1, lsl #1
 8000254:	f013 4f00 	tst.w	r3, #2147483648	; 0x80000000
 8000258:	ea4f 3303 	mov.w	r3, r3, lsl #12
 800025c:	ea4c 3313 	orr.w	r3, ip, r3, lsr #12
 8000260:	d002      	beq.n	8000268 <__adddf3+0x84>
 8000262:	4252      	negs	r2, r2
 8000264:	eb63 0343 	sbc.w	r3, r3, r3, lsl #1
 8000268:	ea94 0f05 	teq	r4, r5
 800026c:	f000 80a7 	beq.w	80003be <__adddf3+0x1da>
 8000270:	f1a4 0401 	sub.w	r4, r4, #1
 8000274:	f1d5 0e20 	rsbs	lr, r5, #32
 8000278:	db0d      	blt.n	8000296 <__adddf3+0xb2>
 800027a:	fa02 fc0e 	lsl.w	ip, r2, lr
 800027e:	fa22 f205 	lsr.w	r2, r2, r5
 8000282:	1880      	adds	r0, r0, r2
 8000284:	f141 0100 	adc.w	r1, r1, #0
 8000288:	fa03 f20e 	lsl.w	r2, r3, lr
 800028c:	1880      	adds	r0, r0, r2
 800028e:	fa43 f305 	asr.w	r3, r3, r5
 8000292:	4159      	adcs	r1, r3
 8000294:	e00e      	b.n	80002b4 <__adddf3+0xd0>
 8000296:	f1a5 0520 	sub.w	r5, r5, #32
 800029a:	f10e 0e20 	add.w	lr, lr, #32
 800029e:	2a01      	cmp	r2, #1
 80002a0:	fa03 fc0e 	lsl.w	ip, r3, lr
 80002a4:	bf28      	it	cs
 80002a6:	f04c 0c02 	orrcs.w	ip, ip, #2
 80002aa:	fa43 f305 	asr.w	r3, r3, r5
 80002ae:	18c0      	adds	r0, r0, r3
 80002b0:	eb51 71e3 	adcs.w	r1, r1, r3, asr #31
 80002b4:	f001 4500 	and.w	r5, r1, #2147483648	; 0x80000000
 80002b8:	d507      	bpl.n	80002ca <__adddf3+0xe6>
 80002ba:	f04f 0e00 	mov.w	lr, #0
 80002be:	f1dc 0c00 	rsbs	ip, ip, #0
 80002c2:	eb7e 0000 	sbcs.w	r0, lr, r0
 80002c6:	eb6e 0101 	sbc.w	r1, lr, r1
 80002ca:	f5b1 1f80 	cmp.w	r1, #1048576	; 0x100000
 80002ce:	d31b      	bcc.n	8000308 <__adddf3+0x124>
 80002d0:	f5b1 1f00 	cmp.w	r1, #2097152	; 0x200000
 80002d4:	d30c      	bcc.n	80002f0 <__adddf3+0x10c>
 80002d6:	0849      	lsrs	r1, r1, #1
 80002d8:	ea5f 0030 	movs.w	r0, r0, rrx
 80002dc:	ea4f 0c3c 	mov.w	ip, ip, rrx
 80002e0:	f104 0401 	add.w	r4, r4, #1
 80002e4:	ea4f 5244 	mov.w	r2, r4, lsl #21
 80002e8:	f512 0f80 	cmn.w	r2, #4194304	; 0x400000
 80002ec:	f080 809a 	bcs.w	8000424 <__adddf3+0x240>
 80002f0:	f1bc 4f00 	cmp.w	ip, #2147483648	; 0x80000000
 80002f4:	bf08      	it	eq
 80002f6:	ea5f 0c50 	movseq.w	ip, r0, lsr #1
 80002fa:	f150 0000 	adcs.w	r0, r0, #0
 80002fe:	eb41 5104 	adc.w	r1, r1, r4, lsl #20
 8000302:	ea41 0105 	orr.w	r1, r1, r5
 8000306:	bd30      	pop	{r4, r5, pc}
 8000308:	ea5f 0c4c 	movs.w	ip, ip, lsl #1
 800030c:	4140      	adcs	r0, r0
 800030e:	eb41 0101 	adc.w	r1, r1, r1
 8000312:	3c01      	subs	r4, #1
 8000314:	bf28      	it	cs
 8000316:	f5b1 1f80 	cmpcs.w	r1, #1048576	; 0x100000
 800031a:	d2e9      	bcs.n	80002f0 <__adddf3+0x10c>
 800031c:	f091 0f00 	teq	r1, #0
 8000320:	bf04      	itt	eq
 8000322:	4601      	moveq	r1, r0
 8000324:	2000      	moveq	r0, #0
 8000326:	fab1 f381 	clz	r3, r1
 800032a:	bf08      	it	eq
 800032c:	3320      	addeq	r3, #32
 800032e:	f1a3 030b 	sub.w	r3, r3, #11
 8000332:	f1b3 0220 	subs.w	r2, r3, #32
 8000336:	da0c      	bge.n	8000352 <__adddf3+0x16e>
 8000338:	320c      	adds	r2, #12
 800033a:	dd08      	ble.n	800034e <__adddf3+0x16a>
 800033c:	f102 0c14 	add.w	ip, r2, #20
 8000340:	f1c2 020c 	rsb	r2, r2, #12
 8000344:	fa01 f00c 	lsl.w	r0, r1, ip
 8000348:	fa21 f102 	lsr.w	r1, r1, r2
 800034c:	e00c      	b.n	8000368 <__adddf3+0x184>
 800034e:	f102 0214 	add.w	r2, r2, #20
 8000352:	bfd8      	it	le
 8000354:	f1c2 0c20 	rsble	ip, r2, #32
 8000358:	fa01 f102 	lsl.w	r1, r1, r2
 800035c:	fa20 fc0c 	lsr.w	ip, r0, ip
 8000360:	bfdc      	itt	le
 8000362:	ea41 010c 	orrle.w	r1, r1, ip
 8000366:	4090      	lslle	r0, r2
 8000368:	1ae4      	subs	r4, r4, r3
 800036a:	bfa2      	ittt	ge
 800036c:	eb01 5104 	addge.w	r1, r1, r4, lsl #20
 8000370:	4329      	orrge	r1, r5
 8000372:	bd30      	popge	{r4, r5, pc}
 8000374:	ea6f 0404 	mvn.w	r4, r4
 8000378:	3c1f      	subs	r4, #31
 800037a:	da1c      	bge.n	80003b6 <__adddf3+0x1d2>
 800037c:	340c      	adds	r4, #12
 800037e:	dc0e      	bgt.n	800039e <__adddf3+0x1ba>
 8000380:	f104 0414 	add.w	r4, r4, #20
 8000384:	f1c4 0220 	rsb	r2, r4, #32
 8000388:	fa20 f004 	lsr.w	r0, r0, r4
 800038c:	fa01 f302 	lsl.w	r3, r1, r2
 8000390:	ea40 0003 	orr.w	r0, r0, r3
 8000394:	fa21 f304 	lsr.w	r3, r1, r4
 8000398:	ea45 0103 	orr.w	r1, r5, r3
 800039c:	bd30      	pop	{r4, r5, pc}
 800039e:	f1c4 040c 	rsb	r4, r4, #12
 80003a2:	f1c4 0220 	rsb	r2, r4, #32
 80003a6:	fa20 f002 	lsr.w	r0, r0, r2
 80003aa:	fa01 f304 	lsl.w	r3, r1, r4
 80003ae:	ea40 0003 	orr.w	r0, r0, r3
 80003b2:	4629      	mov	r1, r5
 80003b4:	bd30      	pop	{r4, r5, pc}
 80003b6:	fa21 f004 	lsr.w	r0, r1, r4
 80003ba:	4629      	mov	r1, r5
 80003bc:	bd30      	pop	{r4, r5, pc}
 80003be:	f094 0f00 	teq	r4, #0
 80003c2:	f483 1380 	eor.w	r3, r3, #1048576	; 0x100000
 80003c6:	bf06      	itte	eq
 80003c8:	f481 1180 	eoreq.w	r1, r1, #1048576	; 0x100000
 80003cc:	3401      	addeq	r4, #1
 80003ce:	3d01      	subne	r5, #1
 80003d0:	e74e      	b.n	8000270 <__adddf3+0x8c>
 80003d2:	ea7f 5c64 	mvns.w	ip, r4, asr #21
 80003d6:	bf18      	it	ne
 80003d8:	ea7f 5c65 	mvnsne.w	ip, r5, asr #21
 80003dc:	d029      	beq.n	8000432 <__adddf3+0x24e>
 80003de:	ea94 0f05 	teq	r4, r5
 80003e2:	bf08      	it	eq
 80003e4:	ea90 0f02 	teqeq	r0, r2
 80003e8:	d005      	beq.n	80003f6 <__adddf3+0x212>
 80003ea:	ea54 0c00 	orrs.w	ip, r4, r0
 80003ee:	bf04      	itt	eq
 80003f0:	4619      	moveq	r1, r3
 80003f2:	4610      	moveq	r0, r2
 80003f4:	bd30      	pop	{r4, r5, pc}
 80003f6:	ea91 0f03 	teq	r1, r3
 80003fa:	bf1e      	ittt	ne
 80003fc:	2100      	movne	r1, #0
 80003fe:	2000      	movne	r0, #0
 8000400:	bd30      	popne	{r4, r5, pc}
 8000402:	ea5f 5c54 	movs.w	ip, r4, lsr #21
 8000406:	d105      	bne.n	8000414 <__adddf3+0x230>
 8000408:	0040      	lsls	r0, r0, #1
 800040a:	4149      	adcs	r1, r1
 800040c:	bf28      	it	cs
 800040e:	f041 4100 	orrcs.w	r1, r1, #2147483648	; 0x80000000
 8000412:	bd30      	pop	{r4, r5, pc}
 8000414:	f514 0480 	adds.w	r4, r4, #4194304	; 0x400000
 8000418:	bf3c      	itt	cc
 800041a:	f501 1180 	addcc.w	r1, r1, #1048576	; 0x100000
 800041e:	bd30      	popcc	{r4, r5, pc}
 8000420:	f001 4500 	and.w	r5, r1, #2147483648	; 0x80000000
 8000424:	f045 41fe 	orr.w	r1, r5, #2130706432	; 0x7f000000
 8000428:	f441 0170 	orr.w	r1, r1, #15728640	; 0xf00000
 800042c:	f04f 0000 	mov.w	r0, #0
 8000430:	bd30      	pop	{r4, r5, pc}
 8000432:	ea7f 5c64 	mvns.w	ip, r4, asr #21
 8000436:	bf1a      	itte	ne
 8000438:	4619      	movne	r1, r3
 800043a:	4610      	movne	r0, r2
 800043c:	ea7f 5c65 	mvnseq.w	ip, r5, asr #21
 8000440:	bf1c      	itt	ne
 8000442:	460b      	movne	r3, r1
 8000444:	4602      	movne	r2, r0
 8000446:	ea50 3401 	orrs.w	r4, r0, r1, lsl #12
 800044a:	bf06      	itte	eq
 800044c:	ea52 3503 	orrseq.w	r5, r2, r3, lsl #12
 8000450:	ea91 0f03 	teqeq	r1, r3
 8000454:	f441 2100 	orrne.w	r1, r1, #524288	; 0x80000
 8000458:	bd30      	pop	{r4, r5, pc}
 800045a:	bf00      	nop

0800045c <__aeabi_ui2d>:
 800045c:	f090 0f00 	teq	r0, #0
 8000460:	bf04      	itt	eq
 8000462:	2100      	moveq	r1, #0
 8000464:	4770      	bxeq	lr
 8000466:	b530      	push	{r4, r5, lr}
 8000468:	f44f 6480 	mov.w	r4, #1024	; 0x400
 800046c:	f104 0432 	add.w	r4, r4, #50	; 0x32
 8000470:	f04f 0500 	mov.w	r5, #0
 8000474:	f04f 0100 	mov.w	r1, #0
 8000478:	e750      	b.n	800031c <__adddf3+0x138>
 800047a:	bf00      	nop

0800047c <__aeabi_i2d>:
 800047c:	f090 0f00 	teq	r0, #0
 8000480:	bf04      	itt	eq
 8000482:	2100      	moveq	r1, #0
 8000484:	4770      	bxeq	lr
 8000486:	b530      	push	{r4, r5, lr}
 8000488:	f44f 6480 	mov.w	r4, #1024	; 0x400
 800048c:	f104 0432 	add.w	r4, r4, #50	; 0x32
 8000490:	f010 4500 	ands.w	r5, r0, #2147483648	; 0x80000000
 8000494:	bf48      	it	mi
 8000496:	4240      	negmi	r0, r0
 8000498:	f04f 0100 	mov.w	r1, #0
 800049c:	e73e      	b.n	800031c <__adddf3+0x138>
 800049e:	bf00      	nop

080004a0 <__aeabi_f2d>:
 80004a0:	0042      	lsls	r2, r0, #1
 80004a2:	ea4f 01e2 	mov.w	r1, r2, asr #3
 80004a6:	ea4f 0131 	mov.w	r1, r1, rrx
 80004aa:	ea4f 7002 	mov.w	r0, r2, lsl #28
 80004ae:	bf1f      	itttt	ne
 80004b0:	f012 437f 	andsne.w	r3, r2, #4278190080	; 0xff000000
 80004b4:	f093 4f7f 	teqne	r3, #4278190080	; 0xff000000
 80004b8:	f081 5160 	eorne.w	r1, r1, #939524096	; 0x38000000
 80004bc:	4770      	bxne	lr
 80004be:	f032 427f 	bics.w	r2, r2, #4278190080	; 0xff000000
 80004c2:	bf08      	it	eq
 80004c4:	4770      	bxeq	lr
 80004c6:	f093 4f7f 	teq	r3, #4278190080	; 0xff000000
 80004ca:	bf04      	itt	eq
 80004cc:	f441 2100 	orreq.w	r1, r1, #524288	; 0x80000
 80004d0:	4770      	bxeq	lr
 80004d2:	b530      	push	{r4, r5, lr}
 80004d4:	f44f 7460 	mov.w	r4, #896	; 0x380
 80004d8:	f001 4500 	and.w	r5, r1, #2147483648	; 0x80000000
 80004dc:	f021 4100 	bic.w	r1, r1, #2147483648	; 0x80000000
 80004e0:	e71c      	b.n	800031c <__adddf3+0x138>
 80004e2:	bf00      	nop

080004e4 <__aeabi_ul2d>:
 80004e4:	ea50 0201 	orrs.w	r2, r0, r1
 80004e8:	bf08      	it	eq
 80004ea:	4770      	bxeq	lr
 80004ec:	b530      	push	{r4, r5, lr}
 80004ee:	f04f 0500 	mov.w	r5, #0
 80004f2:	e00a      	b.n	800050a <__aeabi_l2d+0x16>

080004f4 <__aeabi_l2d>:
 80004f4:	ea50 0201 	orrs.w	r2, r0, r1
 80004f8:	bf08      	it	eq
 80004fa:	4770      	bxeq	lr
 80004fc:	b530      	push	{r4, r5, lr}
 80004fe:	f011 4500 	ands.w	r5, r1, #2147483648	; 0x80000000
 8000502:	d502      	bpl.n	800050a <__aeabi_l2d+0x16>
 8000504:	4240      	negs	r0, r0
 8000506:	eb61 0141 	sbc.w	r1, r1, r1, lsl #1
 800050a:	f44f 6480 	mov.w	r4, #1024	; 0x400
 800050e:	f104 0432 	add.w	r4, r4, #50	; 0x32
 8000512:	ea5f 5c91 	movs.w	ip, r1, lsr #22
 8000516:	f43f aed8 	beq.w	80002ca <__adddf3+0xe6>
 800051a:	f04f 0203 	mov.w	r2, #3
 800051e:	ea5f 0cdc 	movs.w	ip, ip, lsr #3
 8000522:	bf18      	it	ne
 8000524:	3203      	addne	r2, #3
 8000526:	ea5f 0cdc 	movs.w	ip, ip, lsr #3
 800052a:	bf18      	it	ne
 800052c:	3203      	addne	r2, #3
 800052e:	eb02 02dc 	add.w	r2, r2, ip, lsr #3
 8000532:	f1c2 0320 	rsb	r3, r2, #32
 8000536:	fa00 fc03 	lsl.w	ip, r0, r3
 800053a:	fa20 f002 	lsr.w	r0, r0, r2
 800053e:	fa01 fe03 	lsl.w	lr, r1, r3
 8000542:	ea40 000e 	orr.w	r0, r0, lr
 8000546:	fa21 f102 	lsr.w	r1, r1, r2
 800054a:	4414      	add	r4, r2
 800054c:	e6bd      	b.n	80002ca <__adddf3+0xe6>
 800054e:	bf00      	nop

08000550 <__aeabi_dmul>:
 8000550:	b570      	push	{r4, r5, r6, lr}
 8000552:	f04f 0cff 	mov.w	ip, #255	; 0xff
 8000556:	f44c 6ce0 	orr.w	ip, ip, #1792	; 0x700
 800055a:	ea1c 5411 	ands.w	r4, ip, r1, lsr #20
 800055e:	bf1d      	ittte	ne
 8000560:	ea1c 5513 	andsne.w	r5, ip, r3, lsr #20
 8000564:	ea94 0f0c 	teqne	r4, ip
 8000568:	ea95 0f0c 	teqne	r5, ip
 800056c:	f000 f8de 	bleq	800072c <__aeabi_dmul+0x1dc>
 8000570:	442c      	add	r4, r5
 8000572:	ea81 0603 	eor.w	r6, r1, r3
 8000576:	ea21 514c 	bic.w	r1, r1, ip, lsl #21
 800057a:	ea23 534c 	bic.w	r3, r3, ip, lsl #21
 800057e:	ea50 3501 	orrs.w	r5, r0, r1, lsl #12
 8000582:	bf18      	it	ne
 8000584:	ea52 3503 	orrsne.w	r5, r2, r3, lsl #12
 8000588:	f441 1180 	orr.w	r1, r1, #1048576	; 0x100000
 800058c:	f443 1380 	orr.w	r3, r3, #1048576	; 0x100000
 8000590:	d038      	beq.n	8000604 <__aeabi_dmul+0xb4>
 8000592:	fba0 ce02 	umull	ip, lr, r0, r2
 8000596:	f04f 0500 	mov.w	r5, #0
 800059a:	fbe1 e502 	umlal	lr, r5, r1, r2
 800059e:	f006 4200 	and.w	r2, r6, #2147483648	; 0x80000000
 80005a2:	fbe0 e503 	umlal	lr, r5, r0, r3
 80005a6:	f04f 0600 	mov.w	r6, #0
 80005aa:	fbe1 5603 	umlal	r5, r6, r1, r3
 80005ae:	f09c 0f00 	teq	ip, #0
 80005b2:	bf18      	it	ne
 80005b4:	f04e 0e01 	orrne.w	lr, lr, #1
 80005b8:	f1a4 04ff 	sub.w	r4, r4, #255	; 0xff
 80005bc:	f5b6 7f00 	cmp.w	r6, #512	; 0x200
 80005c0:	f564 7440 	sbc.w	r4, r4, #768	; 0x300
 80005c4:	d204      	bcs.n	80005d0 <__aeabi_dmul+0x80>
 80005c6:	ea5f 0e4e 	movs.w	lr, lr, lsl #1
 80005ca:	416d      	adcs	r5, r5
 80005cc:	eb46 0606 	adc.w	r6, r6, r6
 80005d0:	ea42 21c6 	orr.w	r1, r2, r6, lsl #11
 80005d4:	ea41 5155 	orr.w	r1, r1, r5, lsr #21
 80005d8:	ea4f 20c5 	mov.w	r0, r5, lsl #11
 80005dc:	ea40 505e 	orr.w	r0, r0, lr, lsr #21
 80005e0:	ea4f 2ece 	mov.w	lr, lr, lsl #11
 80005e4:	f1b4 0cfd 	subs.w	ip, r4, #253	; 0xfd
 80005e8:	bf88      	it	hi
 80005ea:	f5bc 6fe0 	cmphi.w	ip, #1792	; 0x700
 80005ee:	d81e      	bhi.n	800062e <__aeabi_dmul+0xde>
 80005f0:	f1be 4f00 	cmp.w	lr, #2147483648	; 0x80000000
 80005f4:	bf08      	it	eq
 80005f6:	ea5f 0e50 	movseq.w	lr, r0, lsr #1
 80005fa:	f150 0000 	adcs.w	r0, r0, #0
 80005fe:	eb41 5104 	adc.w	r1, r1, r4, lsl #20
 8000602:	bd70      	pop	{r4, r5, r6, pc}
 8000604:	f006 4600 	and.w	r6, r6, #2147483648	; 0x80000000
 8000608:	ea46 0101 	orr.w	r1, r6, r1
 800060c:	ea40 0002 	orr.w	r0, r0, r2
 8000610:	ea81 0103 	eor.w	r1, r1, r3
 8000614:	ebb4 045c 	subs.w	r4, r4, ip, lsr #1
 8000618:	bfc2      	ittt	gt
 800061a:	ebd4 050c 	rsbsgt	r5, r4, ip
 800061e:	ea41 5104 	orrgt.w	r1, r1, r4, lsl #20
 8000622:	bd70      	popgt	{r4, r5, r6, pc}
 8000624:	f441 1180 	orr.w	r1, r1, #1048576	; 0x100000
 8000628:	f04f 0e00 	mov.w	lr, #0
 800062c:	3c01      	subs	r4, #1
 800062e:	f300 80ab 	bgt.w	8000788 <__aeabi_dmul+0x238>
 8000632:	f114 0f36 	cmn.w	r4, #54	; 0x36
 8000636:	bfde      	ittt	le
 8000638:	2000      	movle	r0, #0
 800063a:	f001 4100 	andle.w	r1, r1, #2147483648	; 0x80000000
 800063e:	bd70      	pople	{r4, r5, r6, pc}
 8000640:	f1c4 0400 	rsb	r4, r4, #0
 8000644:	3c20      	subs	r4, #32
 8000646:	da35      	bge.n	80006b4 <__aeabi_dmul+0x164>
 8000648:	340c      	adds	r4, #12
 800064a:	dc1b      	bgt.n	8000684 <__aeabi_dmul+0x134>
 800064c:	f104 0414 	add.w	r4, r4, #20
 8000650:	f1c4 0520 	rsb	r5, r4, #32
 8000654:	fa00 f305 	lsl.w	r3, r0, r5
 8000658:	fa20 f004 	lsr.w	r0, r0, r4
 800065c:	fa01 f205 	lsl.w	r2, r1, r5
 8000660:	ea40 0002 	orr.w	r0, r0, r2
 8000664:	f001 4200 	and.w	r2, r1, #2147483648	; 0x80000000
 8000668:	f021 4100 	bic.w	r1, r1, #2147483648	; 0x80000000
 800066c:	eb10 70d3 	adds.w	r0, r0, r3, lsr #31
 8000670:	fa21 f604 	lsr.w	r6, r1, r4
 8000674:	eb42 0106 	adc.w	r1, r2, r6
 8000678:	ea5e 0e43 	orrs.w	lr, lr, r3, lsl #1
 800067c:	bf08      	it	eq
 800067e:	ea20 70d3 	biceq.w	r0, r0, r3, lsr #31
 8000682:	bd70      	pop	{r4, r5, r6, pc}
 8000684:	f1c4 040c 	rsb	r4, r4, #12
 8000688:	f1c4 0520 	rsb	r5, r4, #32
 800068c:	fa00 f304 	lsl.w	r3, r0, r4
 8000690:	fa20 f005 	lsr.w	r0, r0, r5
 8000694:	fa01 f204 	lsl.w	r2, r1, r4
 8000698:	ea40 0002 	orr.w	r0, r0, r2
 800069c:	f001 4100 	and.w	r1, r1, #2147483648	; 0x80000000
 80006a0:	eb10 70d3 	adds.w	r0, r0, r3, lsr #31
 80006a4:	f141 0100 	adc.w	r1, r1, #0
 80006a8:	ea5e 0e43 	orrs.w	lr, lr, r3, lsl #1
 80006ac:	bf08      	it	eq
 80006ae:	ea20 70d3 	biceq.w	r0, r0, r3, lsr #31
 80006b2:	bd70      	pop	{r4, r5, r6, pc}
 80006b4:	f1c4 0520 	rsb	r5, r4, #32
 80006b8:	fa00 f205 	lsl.w	r2, r0, r5
 80006bc:	ea4e 0e02 	orr.w	lr, lr, r2
 80006c0:	fa20 f304 	lsr.w	r3, r0, r4
 80006c4:	fa01 f205 	lsl.w	r2, r1, r5
 80006c8:	ea43 0302 	orr.w	r3, r3, r2
 80006cc:	fa21 f004 	lsr.w	r0, r1, r4
 80006d0:	f001 4100 	and.w	r1, r1, #2147483648	; 0x80000000
 80006d4:	fa21 f204 	lsr.w	r2, r1, r4
 80006d8:	ea20 0002 	bic.w	r0, r0, r2
 80006dc:	eb00 70d3 	add.w	r0, r0, r3, lsr #31
 80006e0:	ea5e 0e43 	orrs.w	lr, lr, r3, lsl #1
 80006e4:	bf08      	it	eq
 80006e6:	ea20 70d3 	biceq.w	r0, r0, r3, lsr #31
 80006ea:	bd70      	pop	{r4, r5, r6, pc}
 80006ec:	f094 0f00 	teq	r4, #0
 80006f0:	d10f      	bne.n	8000712 <__aeabi_dmul+0x1c2>
 80006f2:	f001 4600 	and.w	r6, r1, #2147483648	; 0x80000000
 80006f6:	0040      	lsls	r0, r0, #1
 80006f8:	eb41 0101 	adc.w	r1, r1, r1
 80006fc:	f411 1f80 	tst.w	r1, #1048576	; 0x100000
 8000700:	bf08      	it	eq
 8000702:	3c01      	subeq	r4, #1
 8000704:	d0f7      	beq.n	80006f6 <__aeabi_dmul+0x1a6>
 8000706:	ea41 0106 	orr.w	r1, r1, r6
 800070a:	f095 0f00 	teq	r5, #0
 800070e:	bf18      	it	ne
 8000710:	4770      	bxne	lr
 8000712:	f003 4600 	and.w	r6, r3, #2147483648	; 0x80000000
 8000716:	0052      	lsls	r2, r2, #1
 8000718:	eb43 0303 	adc.w	r3, r3, r3
 800071c:	f413 1f80 	tst.w	r3, #1048576	; 0x100000
 8000720:	bf08      	it	eq
 8000722:	3d01      	subeq	r5, #1
 8000724:	d0f7      	beq.n	8000716 <__aeabi_dmul+0x1c6>
 8000726:	ea43 0306 	orr.w	r3, r3, r6
 800072a:	4770      	bx	lr
 800072c:	ea94 0f0c 	teq	r4, ip
 8000730:	ea0c 5513 	and.w	r5, ip, r3, lsr #20
 8000734:	bf18      	it	ne
 8000736:	ea95 0f0c 	teqne	r5, ip
 800073a:	d00c      	beq.n	8000756 <__aeabi_dmul+0x206>
 800073c:	ea50 0641 	orrs.w	r6, r0, r1, lsl #1
 8000740:	bf18      	it	ne
 8000742:	ea52 0643 	orrsne.w	r6, r2, r3, lsl #1
 8000746:	d1d1      	bne.n	80006ec <__aeabi_dmul+0x19c>
 8000748:	ea81 0103 	eor.w	r1, r1, r3
 800074c:	f001 4100 	and.w	r1, r1, #2147483648	; 0x80000000
 8000750:	f04f 0000 	mov.w	r0, #0
 8000754:	bd70      	pop	{r4, r5, r6, pc}
 8000756:	ea50 0641 	orrs.w	r6, r0, r1, lsl #1
 800075a:	bf06      	itte	eq
 800075c:	4610      	moveq	r0, r2
 800075e:	4619      	moveq	r1, r3
 8000760:	ea52 0643 	orrsne.w	r6, r2, r3, lsl #1
 8000764:	d019      	beq.n	800079a <__aeabi_dmul+0x24a>
 8000766:	ea94 0f0c 	teq	r4, ip
 800076a:	d102      	bne.n	8000772 <__aeabi_dmul+0x222>
 800076c:	ea50 3601 	orrs.w	r6, r0, r1, lsl #12
 8000770:	d113      	bne.n	800079a <__aeabi_dmul+0x24a>
 8000772:	ea95 0f0c 	teq	r5, ip
 8000776:	d105      	bne.n	8000784 <__aeabi_dmul+0x234>
 8000778:	ea52 3603 	orrs.w	r6, r2, r3, lsl #12
 800077c:	bf1c      	itt	ne
 800077e:	4610      	movne	r0, r2
 8000780:	4619      	movne	r1, r3
 8000782:	d10a      	bne.n	800079a <__aeabi_dmul+0x24a>
 8000784:	ea81 0103 	eor.w	r1, r1, r3
 8000788:	f001 4100 	and.w	r1, r1, #2147483648	; 0x80000000
 800078c:	f041 41fe 	orr.w	r1, r1, #2130706432	; 0x7f000000
 8000790:	f441 0170 	orr.w	r1, r1, #15728640	; 0xf00000
 8000794:	f04f 0000 	mov.w	r0, #0
 8000798:	bd70      	pop	{r4, r5, r6, pc}
 800079a:	f041 41fe 	orr.w	r1, r1, #2130706432	; 0x7f000000
 800079e:	f441 0178 	orr.w	r1, r1, #16252928	; 0xf80000
 80007a2:	bd70      	pop	{r4, r5, r6, pc}

080007a4 <__aeabi_ddiv>:
 80007a4:	b570      	push	{r4, r5, r6, lr}
 80007a6:	f04f 0cff 	mov.w	ip, #255	; 0xff
 80007aa:	f44c 6ce0 	orr.w	ip, ip, #1792	; 0x700
 80007ae:	ea1c 5411 	ands.w	r4, ip, r1, lsr #20
 80007b2:	bf1d      	ittte	ne
 80007b4:	ea1c 5513 	andsne.w	r5, ip, r3, lsr #20
 80007b8:	ea94 0f0c 	teqne	r4, ip
 80007bc:	ea95 0f0c 	teqne	r5, ip
 80007c0:	f000 f8a7 	bleq	8000912 <__aeabi_ddiv+0x16e>
 80007c4:	eba4 0405 	sub.w	r4, r4, r5
 80007c8:	ea81 0e03 	eor.w	lr, r1, r3
 80007cc:	ea52 3503 	orrs.w	r5, r2, r3, lsl #12
 80007d0:	ea4f 3101 	mov.w	r1, r1, lsl #12
 80007d4:	f000 8088 	beq.w	80008e8 <__aeabi_ddiv+0x144>
 80007d8:	ea4f 3303 	mov.w	r3, r3, lsl #12
 80007dc:	f04f 5580 	mov.w	r5, #268435456	; 0x10000000
 80007e0:	ea45 1313 	orr.w	r3, r5, r3, lsr #4
 80007e4:	ea43 6312 	orr.w	r3, r3, r2, lsr #24
 80007e8:	ea4f 2202 	mov.w	r2, r2, lsl #8
 80007ec:	ea45 1511 	orr.w	r5, r5, r1, lsr #4
 80007f0:	ea45 6510 	orr.w	r5, r5, r0, lsr #24
 80007f4:	ea4f 2600 	mov.w	r6, r0, lsl #8
 80007f8:	f00e 4100 	and.w	r1, lr, #2147483648	; 0x80000000
 80007fc:	429d      	cmp	r5, r3
 80007fe:	bf08      	it	eq
 8000800:	4296      	cmpeq	r6, r2
 8000802:	f144 04fd 	adc.w	r4, r4, #253	; 0xfd
 8000806:	f504 7440 	add.w	r4, r4, #768	; 0x300
 800080a:	d202      	bcs.n	8000812 <__aeabi_ddiv+0x6e>
 800080c:	085b      	lsrs	r3, r3, #1
 800080e:	ea4f 0232 	mov.w	r2, r2, rrx
 8000812:	1ab6      	subs	r6, r6, r2
 8000814:	eb65 0503 	sbc.w	r5, r5, r3
 8000818:	085b      	lsrs	r3, r3, #1
 800081a:	ea4f 0232 	mov.w	r2, r2, rrx
 800081e:	f44f 1080 	mov.w	r0, #1048576	; 0x100000
 8000822:	f44f 2c00 	mov.w	ip, #524288	; 0x80000
 8000826:	ebb6 0e02 	subs.w	lr, r6, r2
 800082a:	eb75 0e03 	sbcs.w	lr, r5, r3
 800082e:	bf22      	ittt	cs
 8000830:	1ab6      	subcs	r6, r6, r2
 8000832:	4675      	movcs	r5, lr
 8000834:	ea40 000c 	orrcs.w	r0, r0, ip
 8000838:	085b      	lsrs	r3, r3, #1
 800083a:	ea4f 0232 	mov.w	r2, r2, rrx
 800083e:	ebb6 0e02 	subs.w	lr, r6, r2
 8000842:	eb75 0e03 	sbcs.w	lr, r5, r3
 8000846:	bf22      	ittt	cs
 8000848:	1ab6      	subcs	r6, r6, r2
 800084a:	4675      	movcs	r5, lr
 800084c:	ea40 005c 	orrcs.w	r0, r0, ip, lsr #1
 8000850:	085b      	lsrs	r3, r3, #1
 8000852:	ea4f 0232 	mov.w	r2, r2, rrx
 8000856:	ebb6 0e02 	subs.w	lr, r6, r2
 800085a:	eb75 0e03 	sbcs.w	lr, r5, r3
 800085e:	bf22      	ittt	cs
 8000860:	1ab6      	subcs	r6, r6, r2
 8000862:	4675      	movcs	r5, lr
 8000864:	ea40 009c 	orrcs.w	r0, r0, ip, lsr #2
 8000868:	085b      	lsrs	r3, r3, #1
 800086a:	ea4f 0232 	mov.w	r2, r2, rrx
 800086e:	ebb6 0e02 	subs.w	lr, r6, r2
 8000872:	eb75 0e03 	sbcs.w	lr, r5, r3
 8000876:	bf22      	ittt	cs
 8000878:	1ab6      	subcs	r6, r6, r2
 800087a:	4675      	movcs	r5, lr
 800087c:	ea40 00dc 	orrcs.w	r0, r0, ip, lsr #3
 8000880:	ea55 0e06 	orrs.w	lr, r5, r6
 8000884:	d018      	beq.n	80008b8 <__aeabi_ddiv+0x114>
 8000886:	ea4f 1505 	mov.w	r5, r5, lsl #4
 800088a:	ea45 7516 	orr.w	r5, r5, r6, lsr #28
 800088e:	ea4f 1606 	mov.w	r6, r6, lsl #4
 8000892:	ea4f 03c3 	mov.w	r3, r3, lsl #3
 8000896:	ea43 7352 	orr.w	r3, r3, r2, lsr #29
 800089a:	ea4f 02c2 	mov.w	r2, r2, lsl #3
 800089e:	ea5f 1c1c 	movs.w	ip, ip, lsr #4
 80008a2:	d1c0      	bne.n	8000826 <__aeabi_ddiv+0x82>
 80008a4:	f411 1f80 	tst.w	r1, #1048576	; 0x100000
 80008a8:	d10b      	bne.n	80008c2 <__aeabi_ddiv+0x11e>
 80008aa:	ea41 0100 	orr.w	r1, r1, r0
 80008ae:	f04f 0000 	mov.w	r0, #0
 80008b2:	f04f 4c00 	mov.w	ip, #2147483648	; 0x80000000
 80008b6:	e7b6      	b.n	8000826 <__aeabi_ddiv+0x82>
 80008b8:	f411 1f80 	tst.w	r1, #1048576	; 0x100000
 80008bc:	bf04      	itt	eq
 80008be:	4301      	orreq	r1, r0
 80008c0:	2000      	moveq	r0, #0
 80008c2:	f1b4 0cfd 	subs.w	ip, r4, #253	; 0xfd
 80008c6:	bf88      	it	hi
 80008c8:	f5bc 6fe0 	cmphi.w	ip, #1792	; 0x700
 80008cc:	f63f aeaf 	bhi.w	800062e <__aeabi_dmul+0xde>
 80008d0:	ebb5 0c03 	subs.w	ip, r5, r3
 80008d4:	bf04      	itt	eq
 80008d6:	ebb6 0c02 	subseq.w	ip, r6, r2
 80008da:	ea5f 0c50 	movseq.w	ip, r0, lsr #1
 80008de:	f150 0000 	adcs.w	r0, r0, #0
 80008e2:	eb41 5104 	adc.w	r1, r1, r4, lsl #20
 80008e6:	bd70      	pop	{r4, r5, r6, pc}
 80008e8:	f00e 4e00 	and.w	lr, lr, #2147483648	; 0x80000000
 80008ec:	ea4e 3111 	orr.w	r1, lr, r1, lsr #12
 80008f0:	eb14 045c 	adds.w	r4, r4, ip, lsr #1
 80008f4:	bfc2      	ittt	gt
 80008f6:	ebd4 050c 	rsbsgt	r5, r4, ip
 80008fa:	ea41 5104 	orrgt.w	r1, r1, r4, lsl #20
 80008fe:	bd70      	popgt	{r4, r5, r6, pc}
 8000900:	f441 1180 	orr.w	r1, r1, #1048576	; 0x100000
 8000904:	f04f 0e00 	mov.w	lr, #0
 8000908:	3c01      	subs	r4, #1
 800090a:	e690      	b.n	800062e <__aeabi_dmul+0xde>
 800090c:	ea45 0e06 	orr.w	lr, r5, r6
 8000910:	e68d      	b.n	800062e <__aeabi_dmul+0xde>
 8000912:	ea0c 5513 	and.w	r5, ip, r3, lsr #20
 8000916:	ea94 0f0c 	teq	r4, ip
 800091a:	bf08      	it	eq
 800091c:	ea95 0f0c 	teqeq	r5, ip
 8000920:	f43f af3b 	beq.w	800079a <__aeabi_dmul+0x24a>
 8000924:	ea94 0f0c 	teq	r4, ip
 8000928:	d10a      	bne.n	8000940 <__aeabi_ddiv+0x19c>
 800092a:	ea50 3401 	orrs.w	r4, r0, r1, lsl #12
 800092e:	f47f af34 	bne.w	800079a <__aeabi_dmul+0x24a>
 8000932:	ea95 0f0c 	teq	r5, ip
 8000936:	f47f af25 	bne.w	8000784 <__aeabi_dmul+0x234>
 800093a:	4610      	mov	r0, r2
 800093c:	4619      	mov	r1, r3
 800093e:	e72c      	b.n	800079a <__aeabi_dmul+0x24a>
 8000940:	ea95 0f0c 	teq	r5, ip
 8000944:	d106      	bne.n	8000954 <__aeabi_ddiv+0x1b0>
 8000946:	ea52 3503 	orrs.w	r5, r2, r3, lsl #12
 800094a:	f43f aefd 	beq.w	8000748 <__aeabi_dmul+0x1f8>
 800094e:	4610      	mov	r0, r2
 8000950:	4619      	mov	r1, r3
 8000952:	e722      	b.n	800079a <__aeabi_dmul+0x24a>
 8000954:	ea50 0641 	orrs.w	r6, r0, r1, lsl #1
 8000958:	bf18      	it	ne
 800095a:	ea52 0643 	orrsne.w	r6, r2, r3, lsl #1
 800095e:	f47f aec5 	bne.w	80006ec <__aeabi_dmul+0x19c>
 8000962:	ea50 0441 	orrs.w	r4, r0, r1, lsl #1
 8000966:	f47f af0d 	bne.w	8000784 <__aeabi_dmul+0x234>
 800096a:	ea52 0543 	orrs.w	r5, r2, r3, lsl #1
 800096e:	f47f aeeb 	bne.w	8000748 <__aeabi_dmul+0x1f8>
 8000972:	e712      	b.n	800079a <__aeabi_dmul+0x24a>

08000974 <__aeabi_d2uiz>:
 8000974:	004a      	lsls	r2, r1, #1
 8000976:	d211      	bcs.n	800099c <__aeabi_d2uiz+0x28>
 8000978:	f512 1200 	adds.w	r2, r2, #2097152	; 0x200000
 800097c:	d211      	bcs.n	80009a2 <__aeabi_d2uiz+0x2e>
 800097e:	d50d      	bpl.n	800099c <__aeabi_d2uiz+0x28>
 8000980:	f46f 7378 	mvn.w	r3, #992	; 0x3e0
 8000984:	ebb3 5262 	subs.w	r2, r3, r2, asr #21
 8000988:	d40e      	bmi.n	80009a8 <__aeabi_d2uiz+0x34>
 800098a:	ea4f 23c1 	mov.w	r3, r1, lsl #11
 800098e:	f043 4300 	orr.w	r3, r3, #2147483648	; 0x80000000
 8000992:	ea43 5350 	orr.w	r3, r3, r0, lsr #21
 8000996:	fa23 f002 	lsr.w	r0, r3, r2
 800099a:	4770      	bx	lr
 800099c:	f04f 0000 	mov.w	r0, #0
 80009a0:	4770      	bx	lr
 80009a2:	ea50 3001 	orrs.w	r0, r0, r1, lsl #12
 80009a6:	d102      	bne.n	80009ae <__aeabi_d2uiz+0x3a>
 80009a8:	f04f 30ff 	mov.w	r0, #4294967295
 80009ac:	4770      	bx	lr
 80009ae:	f04f 0000 	mov.w	r0, #0
 80009b2:	4770      	bx	lr

080009b4 <__aeabi_d2f>:
 80009b4:	ea4f 0241 	mov.w	r2, r1, lsl #1
 80009b8:	f1b2 43e0 	subs.w	r3, r2, #1879048192	; 0x70000000
 80009bc:	bf24      	itt	cs
 80009be:	f5b3 1c00 	subscs.w	ip, r3, #2097152	; 0x200000
 80009c2:	f1dc 5cfe 	rsbscs	ip, ip, #532676608	; 0x1fc00000
 80009c6:	d90d      	bls.n	80009e4 <__aeabi_d2f+0x30>
 80009c8:	f001 4c00 	and.w	ip, r1, #2147483648	; 0x80000000
 80009cc:	ea4f 02c0 	mov.w	r2, r0, lsl #3
 80009d0:	ea4c 7050 	orr.w	r0, ip, r0, lsr #29
 80009d4:	f1b2 4f00 	cmp.w	r2, #2147483648	; 0x80000000
 80009d8:	eb40 0083 	adc.w	r0, r0, r3, lsl #2
 80009dc:	bf08      	it	eq
 80009de:	f020 0001 	biceq.w	r0, r0, #1
 80009e2:	4770      	bx	lr
 80009e4:	f011 4f80 	tst.w	r1, #1073741824	; 0x40000000
 80009e8:	d121      	bne.n	8000a2e <__aeabi_d2f+0x7a>
 80009ea:	f113 7238 	adds.w	r2, r3, #48234496	; 0x2e00000
 80009ee:	bfbc      	itt	lt
 80009f0:	f001 4000 	andlt.w	r0, r1, #2147483648	; 0x80000000
 80009f4:	4770      	bxlt	lr
 80009f6:	f441 1180 	orr.w	r1, r1, #1048576	; 0x100000
 80009fa:	ea4f 5252 	mov.w	r2, r2, lsr #21
 80009fe:	f1c2 0218 	rsb	r2, r2, #24
 8000a02:	f1c2 0c20 	rsb	ip, r2, #32
 8000a06:	fa10 f30c 	lsls.w	r3, r0, ip
 8000a0a:	fa20 f002 	lsr.w	r0, r0, r2
 8000a0e:	bf18      	it	ne
 8000a10:	f040 0001 	orrne.w	r0, r0, #1
 8000a14:	ea4f 23c1 	mov.w	r3, r1, lsl #11
 8000a18:	ea4f 23d3 	mov.w	r3, r3, lsr #11
 8000a1c:	fa03 fc0c 	lsl.w	ip, r3, ip
 8000a20:	ea40 000c 	orr.w	r0, r0, ip
 8000a24:	fa23 f302 	lsr.w	r3, r3, r2
 8000a28:	ea4f 0343 	mov.w	r3, r3, lsl #1
 8000a2c:	e7cc      	b.n	80009c8 <__aeabi_d2f+0x14>
 8000a2e:	ea7f 5362 	mvns.w	r3, r2, asr #21
 8000a32:	d107      	bne.n	8000a44 <__aeabi_d2f+0x90>
 8000a34:	ea50 3301 	orrs.w	r3, r0, r1, lsl #12
 8000a38:	bf1e      	ittt	ne
 8000a3a:	f04f 40fe 	movne.w	r0, #2130706432	; 0x7f000000
 8000a3e:	f440 0040 	orrne.w	r0, r0, #12582912	; 0xc00000
 8000a42:	4770      	bxne	lr
 8000a44:	f001 4000 	and.w	r0, r1, #2147483648	; 0x80000000
 8000a48:	f040 40fe 	orr.w	r0, r0, #2130706432	; 0x7f000000
 8000a4c:	f440 0000 	orr.w	r0, r0, #8388608	; 0x800000
 8000a50:	4770      	bx	lr
 8000a52:	bf00      	nop

08000a54 <MADC_vInit>:
/* Func. Name: MADC_vInit                            */
/* i/p arguments: nothing                            */
/* o/p arguments: nothing                            */
/* Desc. : This API Initializes General ADC Settings */
/*****************************************************/
void MADC_vInit(void) {
 8000a54:	b480      	push	{r7}
 8000a56:	af00      	add	r7, sp, #0
	/* Set the Prescaler of the ADC CLK */
	WRITE_BITS(ADC_CCR, MADC_CLOCK_PRESCALER, TWO_BITS, MADC_CCR_ADCPRE0_BIT);
 8000a58:	4b2a      	ldr	r3, [pc, #168]	; (8000b04 <MADC_vInit+0xb0>)
 8000a5a:	681b      	ldr	r3, [r3, #0]
 8000a5c:	4a29      	ldr	r2, [pc, #164]	; (8000b04 <MADC_vInit+0xb0>)
 8000a5e:	f423 3340 	bic.w	r3, r3, #196608	; 0x30000
 8000a62:	6013      	str	r3, [r2, #0]

	/* Set the Data Allignment */
	if (MADC_DATA_ALLIGNMENT == MADC_ALLIGN_RIGHT) { CLR_BIT(ADC1->CR2, MADC_CR2_ALLIGN_BIT); }
 8000a64:	4b28      	ldr	r3, [pc, #160]	; (8000b08 <MADC_vInit+0xb4>)
 8000a66:	689b      	ldr	r3, [r3, #8]
 8000a68:	4a27      	ldr	r2, [pc, #156]	; (8000b08 <MADC_vInit+0xb4>)
 8000a6a:	f423 6300 	bic.w	r3, r3, #2048	; 0x800
 8000a6e:	6093      	str	r3, [r2, #8]
	else 										   { SET_BIT(ADC1->CR2, MADC_CR2_ALLIGN_BIT); }

	/* Set the Resolution of the ADC */
	WRITE_BITS(ADC1->CR1, MADC_RESOLUTION, TWO_BITS, MADC_CR1_RES0_BIT);
 8000a70:	4b25      	ldr	r3, [pc, #148]	; (8000b08 <MADC_vInit+0xb4>)
 8000a72:	685b      	ldr	r3, [r3, #4]
 8000a74:	4a24      	ldr	r2, [pc, #144]	; (8000b08 <MADC_vInit+0xb4>)
 8000a76:	f023 7340 	bic.w	r3, r3, #50331648	; 0x3000000
 8000a7a:	6053      	str	r3, [r2, #4]
	#if MADC_SCANNING_MODE == MADC_SINGLE_CONVERSION_MODE
		CLR_BIT(ADC1->CR1, MADC_CR1_SCAN_BIT);
		/* Clear the EOC After Each Regular Conversion (BY DEFAULT IT IS SINGLE CONVERSION) */
		CLR_BIT(ADC1->CR2, MADC_CR2_EOCS_BIT);
	#elif MADC_SCANNING_MODE == MADC_SCAN_CONVERSION_MODE
		SET_BIT(ADC1->CR1, MADC_CR1_SCAN_BIT);
 8000a7c:	4b22      	ldr	r3, [pc, #136]	; (8000b08 <MADC_vInit+0xb4>)
 8000a7e:	685b      	ldr	r3, [r3, #4]
 8000a80:	4a21      	ldr	r2, [pc, #132]	; (8000b08 <MADC_vInit+0xb4>)
 8000a82:	f443 7380 	orr.w	r3, r3, #256	; 0x100
 8000a86:	6053      	str	r3, [r2, #4]
		if (MADC_END_OF_CONVERSION_LOCATION == MADC_EOC_REGULAR_SEQUENCE_END) { CLR_BIT(ADC1->CR2, MADC_CR2_EOCS_BIT); }
		else																  { SET_BIT(ADC1->CR2, MADC_CR2_EOCS_BIT); }
 8000a88:	4b1f      	ldr	r3, [pc, #124]	; (8000b08 <MADC_vInit+0xb4>)
 8000a8a:	689b      	ldr	r3, [r3, #8]
 8000a8c:	4a1e      	ldr	r2, [pc, #120]	; (8000b08 <MADC_vInit+0xb4>)
 8000a8e:	f443 6380 	orr.w	r3, r3, #1024	; 0x400
 8000a92:	6093      	str	r3, [r2, #8]
	/* Set the Conversion Mode of Regular Group */
	#if MADC_REGULAR_CONVERSION_MODE == MADC_NORMAL_CONVERSION
		CLR_BIT(ADC1->CR1, MADC_CR1_DISCEN_BIT);
		CLR_BIT(ADC1->CR2, MADC_CR2_CONT_BIT);
	#elif  MADC_REGULAR_CONVERSION_MODE == MADC_CONTINUOUS_CONVERSION
		CLR_BIT(ADC1->CR1, MADC_CR1_DISCEN_BIT);
 8000a94:	4b1c      	ldr	r3, [pc, #112]	; (8000b08 <MADC_vInit+0xb4>)
 8000a96:	685b      	ldr	r3, [r3, #4]
 8000a98:	4a1b      	ldr	r2, [pc, #108]	; (8000b08 <MADC_vInit+0xb4>)
 8000a9a:	f423 6300 	bic.w	r3, r3, #2048	; 0x800
 8000a9e:	6053      	str	r3, [r2, #4]
		SET_BIT(ADC1->CR2, MADC_CR2_CONT_BIT);
 8000aa0:	4b19      	ldr	r3, [pc, #100]	; (8000b08 <MADC_vInit+0xb4>)
 8000aa2:	689b      	ldr	r3, [r3, #8]
 8000aa4:	4a18      	ldr	r2, [pc, #96]	; (8000b08 <MADC_vInit+0xb4>)
 8000aa6:	f043 0302 	orr.w	r3, r3, #2
 8000aaa:	6093      	str	r3, [r2, #8]

	#if MADC_REGULAR_EXTERNAL_TRIGGER == MADC_ENABLE
		WRITE_BITS(ADC1->CR2, MADC_REGULAR_EXTERNAL_TRIGGER_EDGE, TWO_BITS, MADC_CR2_EXTEN0_BIT);
		WRITE_BITS(ADC1->CR2, MADC_REGULAR_EXTERNAL_TRIGGER_SOURCE, FOUR_BITS, MADC_CR2_EXTSEL0_BIT);
	#else
		WRITE_BITS(ADC1->CR2, MADC_TRIG_EDGE_DISABLED, TWO_BITS, MADC_CR2_EXTEN0_BIT);
 8000aac:	4b16      	ldr	r3, [pc, #88]	; (8000b08 <MADC_vInit+0xb4>)
 8000aae:	689b      	ldr	r3, [r3, #8]
 8000ab0:	4a15      	ldr	r2, [pc, #84]	; (8000b08 <MADC_vInit+0xb4>)
 8000ab2:	f023 5340 	bic.w	r3, r3, #805306368	; 0x30000000
 8000ab6:	6093      	str	r3, [r2, #8]
	/* Set the Conversion Mode of Injected Group */
	#if MADC_INJECTED_CONVERSION_MODE == MADC_NORMAL_CONVERSION
		CLR_BIT(ADC1->CR1, MADC_CR1_JDISCEN_BIT);
		CLR_BIT(ADC1->CR2, MADC_CR2_CONT_BIT);
	#elif  MADC_INJECTED_CONVERSION_MODE == MADC_CONTINUOUS_CONVERSION
		CLR_BIT(ADC1->CR1, MADC_CR1_JDISCEN_BIT);
 8000ab8:	4b13      	ldr	r3, [pc, #76]	; (8000b08 <MADC_vInit+0xb4>)
 8000aba:	685b      	ldr	r3, [r3, #4]
 8000abc:	4a12      	ldr	r2, [pc, #72]	; (8000b08 <MADC_vInit+0xb4>)
 8000abe:	f423 5380 	bic.w	r3, r3, #4096	; 0x1000
 8000ac2:	6053      	str	r3, [r2, #4]
		SET_BIT(ADC1->CR2, MADC_CR2_CONT_BIT);
 8000ac4:	4b10      	ldr	r3, [pc, #64]	; (8000b08 <MADC_vInit+0xb4>)
 8000ac6:	689b      	ldr	r3, [r3, #8]
 8000ac8:	4a0f      	ldr	r2, [pc, #60]	; (8000b08 <MADC_vInit+0xb4>)
 8000aca:	f043 0302 	orr.w	r3, r3, #2
 8000ace:	6093      	str	r3, [r2, #8]

	#if MADC_INJECTED_EXTERNAL_TRIGGER == MADC_ENABLE
		WRITE_BITS(ADC1->CR2, MADC_INJECTED_EXTERNAL_TRIGGER_EDGE, TWO_BITS, MADC_CR2_JEXTEN0_BIT);
		WRITE_BITS(ADC1->CR2, MADC_INJECTED_EXTERNAL_TRIGGER_SOURCE, FOUR_BITS, MADC_CR2_JEXTSEL0_BIT);
	#else
		WRITE_BITS(ADC1->CR2, MADC_TRIG_EDGE_DISABLED, TWO_BITS, MADC_CR2_JEXTEN0_BIT);
 8000ad0:	4b0d      	ldr	r3, [pc, #52]	; (8000b08 <MADC_vInit+0xb4>)
 8000ad2:	689b      	ldr	r3, [r3, #8]
 8000ad4:	4a0c      	ldr	r2, [pc, #48]	; (8000b08 <MADC_vInit+0xb4>)
 8000ad6:	f423 1340 	bic.w	r3, r3, #3145728	; 0x300000
 8000ada:	6093      	str	r3, [r2, #8]
	#endif

	/* Set Automatic Injection */
	if (MADC_AUTOMATIC_INJECTION == MADC_ENABLE) { SET_BIT(ADC1->CR1, MADC_CR1_JAUTO_BIT); }
	else										 { CLR_BIT(ADC1->CR1, MADC_CR1_JAUTO_BIT); }
 8000adc:	4b0a      	ldr	r3, [pc, #40]	; (8000b08 <MADC_vInit+0xb4>)
 8000ade:	685b      	ldr	r3, [r3, #4]
 8000ae0:	4a09      	ldr	r2, [pc, #36]	; (8000b08 <MADC_vInit+0xb4>)
 8000ae2:	f423 6380 	bic.w	r3, r3, #1024	; 0x400
 8000ae6:	6053      	str	r3, [r2, #4]
	/**************************************************************************************************/

	/* Set ADC to Power Down Mode */
	CLR_BIT(ADC1->CR2, MADC_CR2_ADON_BIT);
 8000ae8:	4b07      	ldr	r3, [pc, #28]	; (8000b08 <MADC_vInit+0xb4>)
 8000aea:	689b      	ldr	r3, [r3, #8]
 8000aec:	4a06      	ldr	r2, [pc, #24]	; (8000b08 <MADC_vInit+0xb4>)
 8000aee:	f023 0301 	bic.w	r3, r3, #1
 8000af2:	6093      	str	r3, [r2, #8]

	/* Clear Status Register */
	ADC1->SR = 0;
 8000af4:	4b04      	ldr	r3, [pc, #16]	; (8000b08 <MADC_vInit+0xb4>)
 8000af6:	2200      	movs	r2, #0
 8000af8:	601a      	str	r2, [r3, #0]
}
 8000afa:	bf00      	nop
 8000afc:	46bd      	mov	sp, r7
 8000afe:	f85d 7b04 	ldr.w	r7, [sp], #4
 8000b02:	4770      	bx	lr
 8000b04:	40015004 	.word	0x40015004
 8000b08:	40012000 	.word	0x40012000

08000b0c <MADC_vEnable>:
/* Func. Name: MADC_vEnable          */
/* i/p arguments: nothing            */
/* o/p arguments: nothing            */
/* Desc. : This API Wakes up the ADC */
/*************************************/
void MADC_vEnable(u8 Copy_u8EnableReg, u8 Copy_u8EnableInj) {
 8000b0c:	b480      	push	{r7}
 8000b0e:	b083      	sub	sp, #12
 8000b10:	af00      	add	r7, sp, #0
 8000b12:	4603      	mov	r3, r0
 8000b14:	460a      	mov	r2, r1
 8000b16:	71fb      	strb	r3, [r7, #7]
 8000b18:	4613      	mov	r3, r2
 8000b1a:	71bb      	strb	r3, [r7, #6]
	/* Wake up ADC from Power Down Mode */
	SET_BIT(ADC1->CR2, MADC_CR2_ADON_BIT);
 8000b1c:	4b0e      	ldr	r3, [pc, #56]	; (8000b58 <MADC_vEnable+0x4c>)
 8000b1e:	689b      	ldr	r3, [r3, #8]
 8000b20:	4a0d      	ldr	r2, [pc, #52]	; (8000b58 <MADC_vEnable+0x4c>)
 8000b22:	f043 0301 	orr.w	r3, r3, #1
 8000b26:	6093      	str	r3, [r2, #8]
	if (Copy_u8EnableReg == MADC_ENABLE) {
 8000b28:	79fb      	ldrb	r3, [r7, #7]
 8000b2a:	2b01      	cmp	r3, #1
 8000b2c:	d105      	bne.n	8000b3a <MADC_vEnable+0x2e>
		SET_BIT(ADC1->CR2, MADC_CR2_SWSTART_BIT);
 8000b2e:	4b0a      	ldr	r3, [pc, #40]	; (8000b58 <MADC_vEnable+0x4c>)
 8000b30:	689b      	ldr	r3, [r3, #8]
 8000b32:	4a09      	ldr	r2, [pc, #36]	; (8000b58 <MADC_vEnable+0x4c>)
 8000b34:	f043 4380 	orr.w	r3, r3, #1073741824	; 0x40000000
 8000b38:	6093      	str	r3, [r2, #8]
	}
	if (Copy_u8EnableInj == MADC_ENABLE) {
 8000b3a:	79bb      	ldrb	r3, [r7, #6]
 8000b3c:	2b01      	cmp	r3, #1
 8000b3e:	d105      	bne.n	8000b4c <MADC_vEnable+0x40>
		SET_BIT(ADC1->CR2, MADC_CR2_JSWSTART_BIT);
 8000b40:	4b05      	ldr	r3, [pc, #20]	; (8000b58 <MADC_vEnable+0x4c>)
 8000b42:	689b      	ldr	r3, [r3, #8]
 8000b44:	4a04      	ldr	r2, [pc, #16]	; (8000b58 <MADC_vEnable+0x4c>)
 8000b46:	f443 0380 	orr.w	r3, r3, #4194304	; 0x400000
 8000b4a:	6093      	str	r3, [r2, #8]
	}
}
 8000b4c:	bf00      	nop
 8000b4e:	370c      	adds	r7, #12
 8000b50:	46bd      	mov	sp, r7
 8000b52:	f85d 7b04 	ldr.w	r7, [sp], #4
 8000b56:	4770      	bx	lr
 8000b58:	40012000 	.word	0x40012000

08000b5c <MADC_u32SetRegularDMA>:
/* Func. Name: MADC_u32SetRegularDMA                              */
/* i/p arguments: Copy_u8Status: MADC_<Status>                    */
/* o/p arguments: Address of the Data Register                    */
/* Desc. : This API Enables Requesting DMA (STREAM 0 - CHANNEL 0) */
/******************************************************************/
volatile u32* MADC_u32SetRegularDMA(u8 Copy_u8Status) {
 8000b5c:	b480      	push	{r7}
 8000b5e:	b083      	sub	sp, #12
 8000b60:	af00      	add	r7, sp, #0
 8000b62:	4603      	mov	r3, r0
 8000b64:	71fb      	strb	r3, [r7, #7]
	if (Copy_u8Status == MADC_ENABLE) {
 8000b66:	79fb      	ldrb	r3, [r7, #7]
 8000b68:	2b01      	cmp	r3, #1
 8000b6a:	d10f      	bne.n	8000b8c <MADC_u32SetRegularDMA+0x30>
		SET_BIT(ADC1->CR2, MADC_CR2_DMA_BIT);
 8000b6c:	4b0e      	ldr	r3, [pc, #56]	; (8000ba8 <MADC_u32SetRegularDMA+0x4c>)
 8000b6e:	689b      	ldr	r3, [r3, #8]
 8000b70:	4a0d      	ldr	r2, [pc, #52]	; (8000ba8 <MADC_u32SetRegularDMA+0x4c>)
 8000b72:	f443 7380 	orr.w	r3, r3, #256	; 0x100
 8000b76:	6093      	str	r3, [r2, #8]
		SET_BIT(ADC1->CR2, MADC_CR2_DDS_BIT);
 8000b78:	4b0b      	ldr	r3, [pc, #44]	; (8000ba8 <MADC_u32SetRegularDMA+0x4c>)
 8000b7a:	689b      	ldr	r3, [r3, #8]
 8000b7c:	4a0a      	ldr	r2, [pc, #40]	; (8000ba8 <MADC_u32SetRegularDMA+0x4c>)
 8000b7e:	f443 7300 	orr.w	r3, r3, #512	; 0x200
 8000b82:	6093      	str	r3, [r2, #8]
		ADC1->SR = 0;
 8000b84:	4b08      	ldr	r3, [pc, #32]	; (8000ba8 <MADC_u32SetRegularDMA+0x4c>)
 8000b86:	2200      	movs	r2, #0
 8000b88:	601a      	str	r2, [r3, #0]
 8000b8a:	e005      	b.n	8000b98 <MADC_u32SetRegularDMA+0x3c>
	}
	else { CLR_BIT(ADC1->CR2, MADC_CR2_DMA_BIT); }
 8000b8c:	4b06      	ldr	r3, [pc, #24]	; (8000ba8 <MADC_u32SetRegularDMA+0x4c>)
 8000b8e:	689b      	ldr	r3, [r3, #8]
 8000b90:	4a05      	ldr	r2, [pc, #20]	; (8000ba8 <MADC_u32SetRegularDMA+0x4c>)
 8000b92:	f423 7380 	bic.w	r3, r3, #256	; 0x100
 8000b96:	6093      	str	r3, [r2, #8]
	return &(ADC1->DR);
 8000b98:	4b04      	ldr	r3, [pc, #16]	; (8000bac <MADC_u32SetRegularDMA+0x50>)
}
 8000b9a:	4618      	mov	r0, r3
 8000b9c:	370c      	adds	r7, #12
 8000b9e:	46bd      	mov	sp, r7
 8000ba0:	f85d 7b04 	ldr.w	r7, [sp], #4
 8000ba4:	4770      	bx	lr
 8000ba6:	bf00      	nop
 8000ba8:	40012000 	.word	0x40012000
 8000bac:	4001204c 	.word	0x4001204c

08000bb0 <MADC_vSetSamplingTime>:
/* i/p arguments: Channel: MADC_CHANNEL<Number>		 	                */
/* i/p arguments: Copy_u8SampleTime: MADC_SAMPLING_CYCLES_<Number>      */
/* o/p arguments: nothing                                               */
/* Desc. : This API Sets the Sample Time in Clocks for Selected Channel */
/************************************************************************/
void MADC_vSetSamplingTime(MADC_CHANNEL Channel, u8 Copy_u8SampleTime) {
 8000bb0:	b4b0      	push	{r4, r5, r7}
 8000bb2:	b083      	sub	sp, #12
 8000bb4:	af00      	add	r7, sp, #0
 8000bb6:	4603      	mov	r3, r0
 8000bb8:	460a      	mov	r2, r1
 8000bba:	71fb      	strb	r3, [r7, #7]
 8000bbc:	4613      	mov	r3, r2
 8000bbe:	71bb      	strb	r3, [r7, #6]
	WRITE_BITS(ADC1->SMPR[1 - (Channel % 10)], Copy_u8SampleTime, THREE_BITS, ((Channel % 10) * 3));
 8000bc0:	79b8      	ldrb	r0, [r7, #6]
 8000bc2:	79fa      	ldrb	r2, [r7, #7]
 8000bc4:	4b27      	ldr	r3, [pc, #156]	; (8000c64 <MADC_vSetSamplingTime+0xb4>)
 8000bc6:	fba3 1302 	umull	r1, r3, r3, r2
 8000bca:	08d9      	lsrs	r1, r3, #3
 8000bcc:	460b      	mov	r3, r1
 8000bce:	009b      	lsls	r3, r3, #2
 8000bd0:	440b      	add	r3, r1
 8000bd2:	005b      	lsls	r3, r3, #1
 8000bd4:	1ad3      	subs	r3, r2, r3
 8000bd6:	b2db      	uxtb	r3, r3
 8000bd8:	461a      	mov	r2, r3
 8000bda:	4613      	mov	r3, r2
 8000bdc:	005b      	lsls	r3, r3, #1
 8000bde:	4413      	add	r3, r2
 8000be0:	fa00 f303 	lsl.w	r3, r0, r3
 8000be4:	461d      	mov	r5, r3
 8000be6:	4820      	ldr	r0, [pc, #128]	; (8000c68 <MADC_vSetSamplingTime+0xb8>)
 8000be8:	79fa      	ldrb	r2, [r7, #7]
 8000bea:	4b1e      	ldr	r3, [pc, #120]	; (8000c64 <MADC_vSetSamplingTime+0xb4>)
 8000bec:	fba3 1302 	umull	r1, r3, r3, r2
 8000bf0:	08d9      	lsrs	r1, r3, #3
 8000bf2:	460b      	mov	r3, r1
 8000bf4:	009b      	lsls	r3, r3, #2
 8000bf6:	440b      	add	r3, r1
 8000bf8:	005b      	lsls	r3, r3, #1
 8000bfa:	1ad3      	subs	r3, r2, r3
 8000bfc:	b2db      	uxtb	r3, r3
 8000bfe:	f1c3 0301 	rsb	r3, r3, #1
 8000c02:	3302      	adds	r3, #2
 8000c04:	009b      	lsls	r3, r3, #2
 8000c06:	4403      	add	r3, r0
 8000c08:	6858      	ldr	r0, [r3, #4]
 8000c0a:	79fa      	ldrb	r2, [r7, #7]
 8000c0c:	4b15      	ldr	r3, [pc, #84]	; (8000c64 <MADC_vSetSamplingTime+0xb4>)
 8000c0e:	fba3 1302 	umull	r1, r3, r3, r2
 8000c12:	08d9      	lsrs	r1, r3, #3
 8000c14:	460b      	mov	r3, r1
 8000c16:	009b      	lsls	r3, r3, #2
 8000c18:	440b      	add	r3, r1
 8000c1a:	005b      	lsls	r3, r3, #1
 8000c1c:	1ad3      	subs	r3, r2, r3
 8000c1e:	b2db      	uxtb	r3, r3
 8000c20:	461a      	mov	r2, r3
 8000c22:	4613      	mov	r3, r2
 8000c24:	005b      	lsls	r3, r3, #1
 8000c26:	4413      	add	r3, r2
 8000c28:	2207      	movs	r2, #7
 8000c2a:	fa02 f303 	lsl.w	r3, r2, r3
 8000c2e:	43db      	mvns	r3, r3
 8000c30:	4018      	ands	r0, r3
 8000c32:	4c0d      	ldr	r4, [pc, #52]	; (8000c68 <MADC_vSetSamplingTime+0xb8>)
 8000c34:	79fa      	ldrb	r2, [r7, #7]
 8000c36:	4b0b      	ldr	r3, [pc, #44]	; (8000c64 <MADC_vSetSamplingTime+0xb4>)
 8000c38:	fba3 1302 	umull	r1, r3, r3, r2
 8000c3c:	08d9      	lsrs	r1, r3, #3
 8000c3e:	460b      	mov	r3, r1
 8000c40:	009b      	lsls	r3, r3, #2
 8000c42:	440b      	add	r3, r1
 8000c44:	005b      	lsls	r3, r3, #1
 8000c46:	1ad3      	subs	r3, r2, r3
 8000c48:	b2db      	uxtb	r3, r3
 8000c4a:	f1c3 0301 	rsb	r3, r3, #1
 8000c4e:	ea45 0200 	orr.w	r2, r5, r0
 8000c52:	3302      	adds	r3, #2
 8000c54:	009b      	lsls	r3, r3, #2
 8000c56:	4423      	add	r3, r4
 8000c58:	605a      	str	r2, [r3, #4]
}
 8000c5a:	bf00      	nop
 8000c5c:	370c      	adds	r7, #12
 8000c5e:	46bd      	mov	sp, r7
 8000c60:	bcb0      	pop	{r4, r5, r7}
 8000c62:	4770      	bx	lr
 8000c64:	cccccccd 	.word	0xcccccccd
 8000c68:	40012000 	.word	0x40012000

08000c6c <MADC_vSetNumberOfConversions>:
/* i/p arguments: Copy_u8Group: MADC_<Group>_GROUP			    */
/* i/p arguments: Copy_u8Conversions: MADC_<Number>_CONVERSIONS	*/
/* o/p arguments: nothing                                       */
/* Desc. : This API Sets the Number of Channels to be Converted */
/****************************************************************/
void MADC_vSetNumberOfConversions(u8 Copy_u8Group, u8 Copy_u8Conversions) {
 8000c6c:	b480      	push	{r7}
 8000c6e:	b083      	sub	sp, #12
 8000c70:	af00      	add	r7, sp, #0
 8000c72:	4603      	mov	r3, r0
 8000c74:	460a      	mov	r2, r1
 8000c76:	71fb      	strb	r3, [r7, #7]
 8000c78:	4613      	mov	r3, r2
 8000c7a:	71bb      	strb	r3, [r7, #6]
	if (Copy_u8Group == MADC_REGULAR_GROUP) { WRITE_BITS(ADC1->SQR[0], Copy_u8Conversions, FOUR_BITS, MADC_SQR1_L0_BIT);  }
 8000c7c:	79fb      	ldrb	r3, [r7, #7]
 8000c7e:	2b00      	cmp	r3, #0
 8000c80:	d10a      	bne.n	8000c98 <MADC_vSetNumberOfConversions+0x2c>
 8000c82:	79bb      	ldrb	r3, [r7, #6]
 8000c84:	051b      	lsls	r3, r3, #20
 8000c86:	4619      	mov	r1, r3
 8000c88:	4b0b      	ldr	r3, [pc, #44]	; (8000cb8 <MADC_vSetNumberOfConversions+0x4c>)
 8000c8a:	6adb      	ldr	r3, [r3, #44]	; 0x2c
 8000c8c:	f423 0370 	bic.w	r3, r3, #15728640	; 0xf00000
 8000c90:	4a09      	ldr	r2, [pc, #36]	; (8000cb8 <MADC_vSetNumberOfConversions+0x4c>)
 8000c92:	430b      	orrs	r3, r1
 8000c94:	62d3      	str	r3, [r2, #44]	; 0x2c
	else 									{ WRITE_BITS(ADC1->JSQR  , Copy_u8Conversions, TWO_BITS , MADC_JSQR_JL0_BIT); }
}
 8000c96:	e009      	b.n	8000cac <MADC_vSetNumberOfConversions+0x40>
	else 									{ WRITE_BITS(ADC1->JSQR  , Copy_u8Conversions, TWO_BITS , MADC_JSQR_JL0_BIT); }
 8000c98:	79bb      	ldrb	r3, [r7, #6]
 8000c9a:	051b      	lsls	r3, r3, #20
 8000c9c:	4619      	mov	r1, r3
 8000c9e:	4b06      	ldr	r3, [pc, #24]	; (8000cb8 <MADC_vSetNumberOfConversions+0x4c>)
 8000ca0:	6b9b      	ldr	r3, [r3, #56]	; 0x38
 8000ca2:	f423 1340 	bic.w	r3, r3, #3145728	; 0x300000
 8000ca6:	4a04      	ldr	r2, [pc, #16]	; (8000cb8 <MADC_vSetNumberOfConversions+0x4c>)
 8000ca8:	430b      	orrs	r3, r1
 8000caa:	6393      	str	r3, [r2, #56]	; 0x38
}
 8000cac:	bf00      	nop
 8000cae:	370c      	adds	r7, #12
 8000cb0:	46bd      	mov	sp, r7
 8000cb2:	f85d 7b04 	ldr.w	r7, [sp], #4
 8000cb6:	4770      	bx	lr
 8000cb8:	40012000 	.word	0x40012000

08000cbc <MADC_vSetSequence>:
/* i/p arguments: Channel: MADC_CHANNEL<Number>		 	                            */
/* i/p arguments: Copy_u8SeqNumber: MADC_SEQUENCE_<Number>	                        */
/* o/p arguments: nothing                                                           */
/* Desc. : This API Sets the Selected Channel to be in a Specific Sequence Location */
/************************************************************************************/
void MADC_vSetSequence(u8 Copy_u8Group, MADC_CHANNEL Channel, u8 Copy_u8SeqNumber) {
 8000cbc:	b480      	push	{r7}
 8000cbe:	b083      	sub	sp, #12
 8000cc0:	af00      	add	r7, sp, #0
 8000cc2:	4603      	mov	r3, r0
 8000cc4:	71fb      	strb	r3, [r7, #7]
 8000cc6:	460b      	mov	r3, r1
 8000cc8:	71bb      	strb	r3, [r7, #6]
 8000cca:	4613      	mov	r3, r2
 8000ccc:	717b      	strb	r3, [r7, #5]
	if (Copy_u8Group == MADC_REGULAR_GROUP) {
 8000cce:	79fb      	ldrb	r3, [r7, #7]
 8000cd0:	2b00      	cmp	r3, #0
 8000cd2:	d150      	bne.n	8000d76 <MADC_vSetSequence+0xba>
		if (Copy_u8SeqNumber <= MADC_SEQUENCE_6) {
 8000cd4:	797b      	ldrb	r3, [r7, #5]
 8000cd6:	2b05      	cmp	r3, #5
 8000cd8:	d816      	bhi.n	8000d08 <MADC_vSetSequence+0x4c>
			WRITE_BITS(ADC1->SQR[2], Channel, FIVE_BITS, Copy_u8SeqNumber * 5);
 8000cda:	79b9      	ldrb	r1, [r7, #6]
 8000cdc:	797a      	ldrb	r2, [r7, #5]
 8000cde:	4613      	mov	r3, r2
 8000ce0:	009b      	lsls	r3, r3, #2
 8000ce2:	4413      	add	r3, r2
 8000ce4:	fa01 f303 	lsl.w	r3, r1, r3
 8000ce8:	4618      	mov	r0, r3
 8000cea:	4b31      	ldr	r3, [pc, #196]	; (8000db0 <MADC_vSetSequence+0xf4>)
 8000cec:	6b59      	ldr	r1, [r3, #52]	; 0x34
 8000cee:	797a      	ldrb	r2, [r7, #5]
 8000cf0:	4613      	mov	r3, r2
 8000cf2:	009b      	lsls	r3, r3, #2
 8000cf4:	4413      	add	r3, r2
 8000cf6:	221f      	movs	r2, #31
 8000cf8:	fa02 f303 	lsl.w	r3, r2, r3
 8000cfc:	43db      	mvns	r3, r3
 8000cfe:	400b      	ands	r3, r1
 8000d00:	4a2b      	ldr	r2, [pc, #172]	; (8000db0 <MADC_vSetSequence+0xf4>)
 8000d02:	4303      	orrs	r3, r0
 8000d04:	6353      	str	r3, [r2, #52]	; 0x34
			WRITE_BITS(ADC1->SQR[0], Channel, FIVE_BITS, (Copy_u8SeqNumber - MADC_SEQUENCE_13) * 5);
		}
	} else {
		WRITE_BITS(ADC1->JSQR, Channel, FIVE_BITS, Copy_u8SeqNumber * 5);
	}
}
 8000d06:	e04c      	b.n	8000da2 <MADC_vSetSequence+0xe6>
		} else if (Copy_u8SeqNumber <= MADC_SEQUENCE_12) {
 8000d08:	797b      	ldrb	r3, [r7, #5]
 8000d0a:	2b0b      	cmp	r3, #11
 8000d0c:	d818      	bhi.n	8000d40 <MADC_vSetSequence+0x84>
			WRITE_BITS(ADC1->SQR[1], Channel, FIVE_BITS, (Copy_u8SeqNumber - MADC_SEQUENCE_7) * 5);
 8000d0e:	79b9      	ldrb	r1, [r7, #6]
 8000d10:	797b      	ldrb	r3, [r7, #5]
 8000d12:	1f9a      	subs	r2, r3, #6
 8000d14:	4613      	mov	r3, r2
 8000d16:	009b      	lsls	r3, r3, #2
 8000d18:	4413      	add	r3, r2
 8000d1a:	fa01 f303 	lsl.w	r3, r1, r3
 8000d1e:	4618      	mov	r0, r3
 8000d20:	4b23      	ldr	r3, [pc, #140]	; (8000db0 <MADC_vSetSequence+0xf4>)
 8000d22:	6b19      	ldr	r1, [r3, #48]	; 0x30
 8000d24:	797b      	ldrb	r3, [r7, #5]
 8000d26:	1f9a      	subs	r2, r3, #6
 8000d28:	4613      	mov	r3, r2
 8000d2a:	009b      	lsls	r3, r3, #2
 8000d2c:	4413      	add	r3, r2
 8000d2e:	221f      	movs	r2, #31
 8000d30:	fa02 f303 	lsl.w	r3, r2, r3
 8000d34:	43db      	mvns	r3, r3
 8000d36:	400b      	ands	r3, r1
 8000d38:	4a1d      	ldr	r2, [pc, #116]	; (8000db0 <MADC_vSetSequence+0xf4>)
 8000d3a:	4303      	orrs	r3, r0
 8000d3c:	6313      	str	r3, [r2, #48]	; 0x30
}
 8000d3e:	e030      	b.n	8000da2 <MADC_vSetSequence+0xe6>
			WRITE_BITS(ADC1->SQR[0], Channel, FIVE_BITS, (Copy_u8SeqNumber - MADC_SEQUENCE_13) * 5);
 8000d40:	79b9      	ldrb	r1, [r7, #6]
 8000d42:	797b      	ldrb	r3, [r7, #5]
 8000d44:	f1a3 020c 	sub.w	r2, r3, #12
 8000d48:	4613      	mov	r3, r2
 8000d4a:	009b      	lsls	r3, r3, #2
 8000d4c:	4413      	add	r3, r2
 8000d4e:	fa01 f303 	lsl.w	r3, r1, r3
 8000d52:	4618      	mov	r0, r3
 8000d54:	4b16      	ldr	r3, [pc, #88]	; (8000db0 <MADC_vSetSequence+0xf4>)
 8000d56:	6ad9      	ldr	r1, [r3, #44]	; 0x2c
 8000d58:	797b      	ldrb	r3, [r7, #5]
 8000d5a:	f1a3 020c 	sub.w	r2, r3, #12
 8000d5e:	4613      	mov	r3, r2
 8000d60:	009b      	lsls	r3, r3, #2
 8000d62:	4413      	add	r3, r2
 8000d64:	221f      	movs	r2, #31
 8000d66:	fa02 f303 	lsl.w	r3, r2, r3
 8000d6a:	43db      	mvns	r3, r3
 8000d6c:	400b      	ands	r3, r1
 8000d6e:	4a10      	ldr	r2, [pc, #64]	; (8000db0 <MADC_vSetSequence+0xf4>)
 8000d70:	4303      	orrs	r3, r0
 8000d72:	62d3      	str	r3, [r2, #44]	; 0x2c
}
 8000d74:	e015      	b.n	8000da2 <MADC_vSetSequence+0xe6>
		WRITE_BITS(ADC1->JSQR, Channel, FIVE_BITS, Copy_u8SeqNumber * 5);
 8000d76:	79b9      	ldrb	r1, [r7, #6]
 8000d78:	797a      	ldrb	r2, [r7, #5]
 8000d7a:	4613      	mov	r3, r2
 8000d7c:	009b      	lsls	r3, r3, #2
 8000d7e:	4413      	add	r3, r2
 8000d80:	fa01 f303 	lsl.w	r3, r1, r3
 8000d84:	4618      	mov	r0, r3
 8000d86:	4b0a      	ldr	r3, [pc, #40]	; (8000db0 <MADC_vSetSequence+0xf4>)
 8000d88:	6b99      	ldr	r1, [r3, #56]	; 0x38
 8000d8a:	797a      	ldrb	r2, [r7, #5]
 8000d8c:	4613      	mov	r3, r2
 8000d8e:	009b      	lsls	r3, r3, #2
 8000d90:	4413      	add	r3, r2
 8000d92:	221f      	movs	r2, #31
 8000d94:	fa02 f303 	lsl.w	r3, r2, r3
 8000d98:	43db      	mvns	r3, r3
 8000d9a:	400b      	ands	r3, r1
 8000d9c:	4a04      	ldr	r2, [pc, #16]	; (8000db0 <MADC_vSetSequence+0xf4>)
 8000d9e:	4303      	orrs	r3, r0
 8000da0:	6393      	str	r3, [r2, #56]	; 0x38
}
 8000da2:	bf00      	nop
 8000da4:	370c      	adds	r7, #12
 8000da6:	46bd      	mov	sp, r7
 8000da8:	f85d 7b04 	ldr.w	r7, [sp], #4
 8000dac:	4770      	bx	lr
 8000dae:	bf00      	nop
 8000db0:	40012000 	.word	0x40012000

08000db4 <MDMA_vDirectInit>:
/* i/p arguments: Copy_u8Stream: MDMA_STREAM_[Stream Number] */
/* i/p arguments: A_InitStruct: Initialization Structure     */
/* o/p arguments: nothing              						 */
/* Desc. : This API Initializes DMA to Direct Mode  		 */
/*************************************************************/
void MDMA_vDirectInit(DMA_t* DMAx, u8 Copy_u8Stream, MDMA_DirectInitType* A_InitStruct) {
 8000db4:	b480      	push	{r7}
 8000db6:	b085      	sub	sp, #20
 8000db8:	af00      	add	r7, sp, #0
 8000dba:	60f8      	str	r0, [r7, #12]
 8000dbc:	460b      	mov	r3, r1
 8000dbe:	607a      	str	r2, [r7, #4]
 8000dc0:	72fb      	strb	r3, [r7, #11]
	/* Disable DMA Stream */
	CLR_BIT(DMAx->S[Copy_u8Stream].CR, MDMA_SxCR_EN_BIT);
 8000dc2:	7afa      	ldrb	r2, [r7, #11]
 8000dc4:	68f9      	ldr	r1, [r7, #12]
 8000dc6:	4613      	mov	r3, r2
 8000dc8:	005b      	lsls	r3, r3, #1
 8000dca:	4413      	add	r3, r2
 8000dcc:	00db      	lsls	r3, r3, #3
 8000dce:	440b      	add	r3, r1
 8000dd0:	3310      	adds	r3, #16
 8000dd2:	681b      	ldr	r3, [r3, #0]
 8000dd4:	7afa      	ldrb	r2, [r7, #11]
 8000dd6:	f023 0101 	bic.w	r1, r3, #1
 8000dda:	68f8      	ldr	r0, [r7, #12]
 8000ddc:	4613      	mov	r3, r2
 8000dde:	005b      	lsls	r3, r3, #1
 8000de0:	4413      	add	r3, r2
 8000de2:	00db      	lsls	r3, r3, #3
 8000de4:	4403      	add	r3, r0
 8000de6:	3310      	adds	r3, #16
 8000de8:	6019      	str	r1, [r3, #0]
	/* Enable Direct Mode */
	CLR_BIT(DMAx->S[Copy_u8Stream].FCR, MDMA_SxFCR_DMDIS_BIT);
 8000dea:	7afa      	ldrb	r2, [r7, #11]
 8000dec:	68f9      	ldr	r1, [r7, #12]
 8000dee:	4613      	mov	r3, r2
 8000df0:	005b      	lsls	r3, r3, #1
 8000df2:	4413      	add	r3, r2
 8000df4:	00db      	lsls	r3, r3, #3
 8000df6:	440b      	add	r3, r1
 8000df8:	3324      	adds	r3, #36	; 0x24
 8000dfa:	681b      	ldr	r3, [r3, #0]
 8000dfc:	7afa      	ldrb	r2, [r7, #11]
 8000dfe:	f023 0104 	bic.w	r1, r3, #4
 8000e02:	68f8      	ldr	r0, [r7, #12]
 8000e04:	4613      	mov	r3, r2
 8000e06:	005b      	lsls	r3, r3, #1
 8000e08:	4413      	add	r3, r2
 8000e0a:	00db      	lsls	r3, r3, #3
 8000e0c:	4403      	add	r3, r0
 8000e0e:	3324      	adds	r3, #36	; 0x24
 8000e10:	6019      	str	r1, [r3, #0]
	/* Set the Transfer Direction */
	WRITE_BITS(DMAx->S[Copy_u8Stream].CR, A_InitStruct->TransferDirection, TWO_BITS, MDMA_SxCR_DIR0_BIT);
 8000e12:	687b      	ldr	r3, [r7, #4]
 8000e14:	785b      	ldrb	r3, [r3, #1]
 8000e16:	019b      	lsls	r3, r3, #6
 8000e18:	4618      	mov	r0, r3
 8000e1a:	7afa      	ldrb	r2, [r7, #11]
 8000e1c:	68f9      	ldr	r1, [r7, #12]
 8000e1e:	4613      	mov	r3, r2
 8000e20:	005b      	lsls	r3, r3, #1
 8000e22:	4413      	add	r3, r2
 8000e24:	00db      	lsls	r3, r3, #3
 8000e26:	440b      	add	r3, r1
 8000e28:	3310      	adds	r3, #16
 8000e2a:	681b      	ldr	r3, [r3, #0]
 8000e2c:	f023 03c0 	bic.w	r3, r3, #192	; 0xc0
 8000e30:	7afa      	ldrb	r2, [r7, #11]
 8000e32:	ea40 0103 	orr.w	r1, r0, r3
 8000e36:	68f8      	ldr	r0, [r7, #12]
 8000e38:	4613      	mov	r3, r2
 8000e3a:	005b      	lsls	r3, r3, #1
 8000e3c:	4413      	add	r3, r2
 8000e3e:	00db      	lsls	r3, r3, #3
 8000e40:	4403      	add	r3, r0
 8000e42:	3310      	adds	r3, #16
 8000e44:	6019      	str	r1, [r3, #0]
	/* Set the Peripheral Mode */
	WRITE_BITS(DMAx->S[Copy_u8Stream].CR, A_InitStruct->PINC, ONE_BIT, MDMA_SxCR_PINC_BIT);
 8000e46:	687b      	ldr	r3, [r7, #4]
 8000e48:	78db      	ldrb	r3, [r3, #3]
 8000e4a:	025b      	lsls	r3, r3, #9
 8000e4c:	4618      	mov	r0, r3
 8000e4e:	7afa      	ldrb	r2, [r7, #11]
 8000e50:	68f9      	ldr	r1, [r7, #12]
 8000e52:	4613      	mov	r3, r2
 8000e54:	005b      	lsls	r3, r3, #1
 8000e56:	4413      	add	r3, r2
 8000e58:	00db      	lsls	r3, r3, #3
 8000e5a:	440b      	add	r3, r1
 8000e5c:	3310      	adds	r3, #16
 8000e5e:	681b      	ldr	r3, [r3, #0]
 8000e60:	f423 7300 	bic.w	r3, r3, #512	; 0x200
 8000e64:	7afa      	ldrb	r2, [r7, #11]
 8000e66:	ea40 0103 	orr.w	r1, r0, r3
 8000e6a:	68f8      	ldr	r0, [r7, #12]
 8000e6c:	4613      	mov	r3, r2
 8000e6e:	005b      	lsls	r3, r3, #1
 8000e70:	4413      	add	r3, r2
 8000e72:	00db      	lsls	r3, r3, #3
 8000e74:	4403      	add	r3, r0
 8000e76:	3310      	adds	r3, #16
 8000e78:	6019      	str	r1, [r3, #0]
	/* Set the Memory Mode */
	WRITE_BITS(DMAx->S[Copy_u8Stream].CR, A_InitStruct->MINC, ONE_BIT, MDMA_SxCR_MINC_BIT);
 8000e7a:	687b      	ldr	r3, [r7, #4]
 8000e7c:	791b      	ldrb	r3, [r3, #4]
 8000e7e:	029b      	lsls	r3, r3, #10
 8000e80:	4618      	mov	r0, r3
 8000e82:	7afa      	ldrb	r2, [r7, #11]
 8000e84:	68f9      	ldr	r1, [r7, #12]
 8000e86:	4613      	mov	r3, r2
 8000e88:	005b      	lsls	r3, r3, #1
 8000e8a:	4413      	add	r3, r2
 8000e8c:	00db      	lsls	r3, r3, #3
 8000e8e:	440b      	add	r3, r1
 8000e90:	3310      	adds	r3, #16
 8000e92:	681b      	ldr	r3, [r3, #0]
 8000e94:	f423 6380 	bic.w	r3, r3, #1024	; 0x400
 8000e98:	7afa      	ldrb	r2, [r7, #11]
 8000e9a:	ea40 0103 	orr.w	r1, r0, r3
 8000e9e:	68f8      	ldr	r0, [r7, #12]
 8000ea0:	4613      	mov	r3, r2
 8000ea2:	005b      	lsls	r3, r3, #1
 8000ea4:	4413      	add	r3, r2
 8000ea6:	00db      	lsls	r3, r3, #3
 8000ea8:	4403      	add	r3, r0
 8000eaa:	3310      	adds	r3, #16
 8000eac:	6019      	str	r1, [r3, #0]
	/* Set the Priority */
	WRITE_BITS(DMAx->S[Copy_u8Stream].CR, A_InitStruct->PriorityLevel, TWO_BITS, MDMA_SxCR_PL0_BIT);
 8000eae:	687b      	ldr	r3, [r7, #4]
 8000eb0:	795b      	ldrb	r3, [r3, #5]
 8000eb2:	041b      	lsls	r3, r3, #16
 8000eb4:	4618      	mov	r0, r3
 8000eb6:	7afa      	ldrb	r2, [r7, #11]
 8000eb8:	68f9      	ldr	r1, [r7, #12]
 8000eba:	4613      	mov	r3, r2
 8000ebc:	005b      	lsls	r3, r3, #1
 8000ebe:	4413      	add	r3, r2
 8000ec0:	00db      	lsls	r3, r3, #3
 8000ec2:	440b      	add	r3, r1
 8000ec4:	3310      	adds	r3, #16
 8000ec6:	681b      	ldr	r3, [r3, #0]
 8000ec8:	f423 3340 	bic.w	r3, r3, #196608	; 0x30000
 8000ecc:	7afa      	ldrb	r2, [r7, #11]
 8000ece:	ea40 0103 	orr.w	r1, r0, r3
 8000ed2:	68f8      	ldr	r0, [r7, #12]
 8000ed4:	4613      	mov	r3, r2
 8000ed6:	005b      	lsls	r3, r3, #1
 8000ed8:	4413      	add	r3, r2
 8000eda:	00db      	lsls	r3, r3, #3
 8000edc:	4403      	add	r3, r0
 8000ede:	3310      	adds	r3, #16
 8000ee0:	6019      	str	r1, [r3, #0]
	/* Set the Channel */
	WRITE_BITS(DMAx->S[Copy_u8Stream].CR, A_InitStruct->Channel, THREE_BITS, MDMA_SxCR_CHSEL0_BIT);
 8000ee2:	687b      	ldr	r3, [r7, #4]
 8000ee4:	799b      	ldrb	r3, [r3, #6]
 8000ee6:	065b      	lsls	r3, r3, #25
 8000ee8:	4618      	mov	r0, r3
 8000eea:	7afa      	ldrb	r2, [r7, #11]
 8000eec:	68f9      	ldr	r1, [r7, #12]
 8000eee:	4613      	mov	r3, r2
 8000ef0:	005b      	lsls	r3, r3, #1
 8000ef2:	4413      	add	r3, r2
 8000ef4:	00db      	lsls	r3, r3, #3
 8000ef6:	440b      	add	r3, r1
 8000ef8:	3310      	adds	r3, #16
 8000efa:	681b      	ldr	r3, [r3, #0]
 8000efc:	f023 6360 	bic.w	r3, r3, #234881024	; 0xe000000
 8000f00:	7afa      	ldrb	r2, [r7, #11]
 8000f02:	ea40 0103 	orr.w	r1, r0, r3
 8000f06:	68f8      	ldr	r0, [r7, #12]
 8000f08:	4613      	mov	r3, r2
 8000f0a:	005b      	lsls	r3, r3, #1
 8000f0c:	4413      	add	r3, r2
 8000f0e:	00db      	lsls	r3, r3, #3
 8000f10:	4403      	add	r3, r0
 8000f12:	3310      	adds	r3, #16
 8000f14:	6019      	str	r1, [r3, #0]
	/* Set Peripheral Control */
	WRITE_BITS(DMAx->S[Copy_u8Stream].CR, A_InitStruct->PeripheralControl, ONE_BIT, MDMA_SxCR_PFCTRL_BIT);
 8000f16:	687b      	ldr	r3, [r7, #4]
 8000f18:	781b      	ldrb	r3, [r3, #0]
 8000f1a:	015b      	lsls	r3, r3, #5
 8000f1c:	4618      	mov	r0, r3
 8000f1e:	7afa      	ldrb	r2, [r7, #11]
 8000f20:	68f9      	ldr	r1, [r7, #12]
 8000f22:	4613      	mov	r3, r2
 8000f24:	005b      	lsls	r3, r3, #1
 8000f26:	4413      	add	r3, r2
 8000f28:	00db      	lsls	r3, r3, #3
 8000f2a:	440b      	add	r3, r1
 8000f2c:	3310      	adds	r3, #16
 8000f2e:	681b      	ldr	r3, [r3, #0]
 8000f30:	f023 0320 	bic.w	r3, r3, #32
 8000f34:	7afa      	ldrb	r2, [r7, #11]
 8000f36:	ea40 0103 	orr.w	r1, r0, r3
 8000f3a:	68f8      	ldr	r0, [r7, #12]
 8000f3c:	4613      	mov	r3, r2
 8000f3e:	005b      	lsls	r3, r3, #1
 8000f40:	4413      	add	r3, r2
 8000f42:	00db      	lsls	r3, r3, #3
 8000f44:	4403      	add	r3, r0
 8000f46:	3310      	adds	r3, #16
 8000f48:	6019      	str	r1, [r3, #0]
	/* Set Circular Mode */
	WRITE_BITS(DMAx->S[Copy_u8Stream].CR, A_InitStruct->Circ, ONE_BIT, MDMA_SxCR_CIRC_BIT);
 8000f4a:	687b      	ldr	r3, [r7, #4]
 8000f4c:	789b      	ldrb	r3, [r3, #2]
 8000f4e:	021b      	lsls	r3, r3, #8
 8000f50:	4618      	mov	r0, r3
 8000f52:	7afa      	ldrb	r2, [r7, #11]
 8000f54:	68f9      	ldr	r1, [r7, #12]
 8000f56:	4613      	mov	r3, r2
 8000f58:	005b      	lsls	r3, r3, #1
 8000f5a:	4413      	add	r3, r2
 8000f5c:	00db      	lsls	r3, r3, #3
 8000f5e:	440b      	add	r3, r1
 8000f60:	3310      	adds	r3, #16
 8000f62:	681b      	ldr	r3, [r3, #0]
 8000f64:	f423 7380 	bic.w	r3, r3, #256	; 0x100
 8000f68:	7afa      	ldrb	r2, [r7, #11]
 8000f6a:	ea40 0103 	orr.w	r1, r0, r3
 8000f6e:	68f8      	ldr	r0, [r7, #12]
 8000f70:	4613      	mov	r3, r2
 8000f72:	005b      	lsls	r3, r3, #1
 8000f74:	4413      	add	r3, r2
 8000f76:	00db      	lsls	r3, r3, #3
 8000f78:	4403      	add	r3, r0
 8000f7a:	3310      	adds	r3, #16
 8000f7c:	6019      	str	r1, [r3, #0]
}
 8000f7e:	bf00      	nop
 8000f80:	3714      	adds	r7, #20
 8000f82:	46bd      	mov	sp, r7
 8000f84:	f85d 7b04 	ldr.w	r7, [sp], #4
 8000f88:	4770      	bx	lr

08000f8a <MDMA_vStart>:
/* i/p arguments: Copy_u8Stream: MDMA_STREAM_<Stream Number> */
/* i/p arguments: A_TransferStruct: Transfer Structure       */
/* o/p arguments: nothing              						 */
/* Desc. : This API Starts Data Transfer Through DMAx        */
/*************************************************************/
void MDMA_vStart(DMA_t* DMAx, u8 Copy_u8Stream, MDMA_TransferStruct* A_TransferStruct) {
 8000f8a:	b480      	push	{r7}
 8000f8c:	b085      	sub	sp, #20
 8000f8e:	af00      	add	r7, sp, #0
 8000f90:	60f8      	str	r0, [r7, #12]
 8000f92:	460b      	mov	r3, r1
 8000f94:	607a      	str	r2, [r7, #4]
 8000f96:	72fb      	strb	r3, [r7, #11]
	/* Set the Data Sizes of the Memory and Peripheral */
	WRITE_BITS(DMAx->S[Copy_u8Stream].CR, A_TransferStruct->Size, TWO_BITS, MDMA_SxCR_PSIZE0_BIT);
 8000f98:	687b      	ldr	r3, [r7, #4]
 8000f9a:	7a9b      	ldrb	r3, [r3, #10]
 8000f9c:	02db      	lsls	r3, r3, #11
 8000f9e:	4618      	mov	r0, r3
 8000fa0:	7afa      	ldrb	r2, [r7, #11]
 8000fa2:	68f9      	ldr	r1, [r7, #12]
 8000fa4:	4613      	mov	r3, r2
 8000fa6:	005b      	lsls	r3, r3, #1
 8000fa8:	4413      	add	r3, r2
 8000faa:	00db      	lsls	r3, r3, #3
 8000fac:	440b      	add	r3, r1
 8000fae:	3310      	adds	r3, #16
 8000fb0:	681b      	ldr	r3, [r3, #0]
 8000fb2:	f423 53c0 	bic.w	r3, r3, #6144	; 0x1800
 8000fb6:	7afa      	ldrb	r2, [r7, #11]
 8000fb8:	ea40 0103 	orr.w	r1, r0, r3
 8000fbc:	68f8      	ldr	r0, [r7, #12]
 8000fbe:	4613      	mov	r3, r2
 8000fc0:	005b      	lsls	r3, r3, #1
 8000fc2:	4413      	add	r3, r2
 8000fc4:	00db      	lsls	r3, r3, #3
 8000fc6:	4403      	add	r3, r0
 8000fc8:	3310      	adds	r3, #16
 8000fca:	6019      	str	r1, [r3, #0]
	WRITE_BITS(DMAx->S[Copy_u8Stream].CR, A_TransferStruct->Size, TWO_BITS, MDMA_SxCR_MSIZE0_BIT);
 8000fcc:	687b      	ldr	r3, [r7, #4]
 8000fce:	7a9b      	ldrb	r3, [r3, #10]
 8000fd0:	035b      	lsls	r3, r3, #13
 8000fd2:	4618      	mov	r0, r3
 8000fd4:	7afa      	ldrb	r2, [r7, #11]
 8000fd6:	68f9      	ldr	r1, [r7, #12]
 8000fd8:	4613      	mov	r3, r2
 8000fda:	005b      	lsls	r3, r3, #1
 8000fdc:	4413      	add	r3, r2
 8000fde:	00db      	lsls	r3, r3, #3
 8000fe0:	440b      	add	r3, r1
 8000fe2:	3310      	adds	r3, #16
 8000fe4:	681b      	ldr	r3, [r3, #0]
 8000fe6:	f423 43c0 	bic.w	r3, r3, #24576	; 0x6000
 8000fea:	7afa      	ldrb	r2, [r7, #11]
 8000fec:	ea40 0103 	orr.w	r1, r0, r3
 8000ff0:	68f8      	ldr	r0, [r7, #12]
 8000ff2:	4613      	mov	r3, r2
 8000ff4:	005b      	lsls	r3, r3, #1
 8000ff6:	4413      	add	r3, r2
 8000ff8:	00db      	lsls	r3, r3, #3
 8000ffa:	4403      	add	r3, r0
 8000ffc:	3310      	adds	r3, #16
 8000ffe:	6019      	str	r1, [r3, #0]
	/* Set the Source & Destination & Length */
	DMAx->S[Copy_u8Stream].PAR = (u32)A_TransferStruct->SrcAddr;
 8001000:	687b      	ldr	r3, [r7, #4]
 8001002:	681a      	ldr	r2, [r3, #0]
 8001004:	7afb      	ldrb	r3, [r7, #11]
 8001006:	4610      	mov	r0, r2
 8001008:	68f9      	ldr	r1, [r7, #12]
 800100a:	1c5a      	adds	r2, r3, #1
 800100c:	4613      	mov	r3, r2
 800100e:	005b      	lsls	r3, r3, #1
 8001010:	4413      	add	r3, r2
 8001012:	00db      	lsls	r3, r3, #3
 8001014:	440b      	add	r3, r1
 8001016:	6018      	str	r0, [r3, #0]
	DMAx->S[Copy_u8Stream].M0AR = (u32)A_TransferStruct->DstAddr;
 8001018:	687b      	ldr	r3, [r7, #4]
 800101a:	685a      	ldr	r2, [r3, #4]
 800101c:	7afb      	ldrb	r3, [r7, #11]
 800101e:	4610      	mov	r0, r2
 8001020:	68f9      	ldr	r1, [r7, #12]
 8001022:	1c5a      	adds	r2, r3, #1
 8001024:	4613      	mov	r3, r2
 8001026:	005b      	lsls	r3, r3, #1
 8001028:	4413      	add	r3, r2
 800102a:	00db      	lsls	r3, r3, #3
 800102c:	440b      	add	r3, r1
 800102e:	3304      	adds	r3, #4
 8001030:	6018      	str	r0, [r3, #0]
	DMAx->S[Copy_u8Stream].NDTR = A_TransferStruct->Length;
 8001032:	687b      	ldr	r3, [r7, #4]
 8001034:	891b      	ldrh	r3, [r3, #8]
 8001036:	7afa      	ldrb	r2, [r7, #11]
 8001038:	4618      	mov	r0, r3
 800103a:	68f9      	ldr	r1, [r7, #12]
 800103c:	4613      	mov	r3, r2
 800103e:	005b      	lsls	r3, r3, #1
 8001040:	4413      	add	r3, r2
 8001042:	00db      	lsls	r3, r3, #3
 8001044:	440b      	add	r3, r1
 8001046:	3314      	adds	r3, #20
 8001048:	6018      	str	r0, [r3, #0]
	/* DMA Start */
	SET_BIT(DMAx->S[Copy_u8Stream].CR, MDMA_SxCR_EN_BIT);
 800104a:	7afa      	ldrb	r2, [r7, #11]
 800104c:	68f9      	ldr	r1, [r7, #12]
 800104e:	4613      	mov	r3, r2
 8001050:	005b      	lsls	r3, r3, #1
 8001052:	4413      	add	r3, r2
 8001054:	00db      	lsls	r3, r3, #3
 8001056:	440b      	add	r3, r1
 8001058:	3310      	adds	r3, #16
 800105a:	681b      	ldr	r3, [r3, #0]
 800105c:	7afa      	ldrb	r2, [r7, #11]
 800105e:	f043 0101 	orr.w	r1, r3, #1
 8001062:	68f8      	ldr	r0, [r7, #12]
 8001064:	4613      	mov	r3, r2
 8001066:	005b      	lsls	r3, r3, #1
 8001068:	4413      	add	r3, r2
 800106a:	00db      	lsls	r3, r3, #3
 800106c:	4403      	add	r3, r0
 800106e:	3310      	adds	r3, #16
 8001070:	6019      	str	r1, [r3, #0]
}
 8001072:	bf00      	nop
 8001074:	3714      	adds	r7, #20
 8001076:	46bd      	mov	sp, r7
 8001078:	f85d 7b04 	ldr.w	r7, [sp], #4
 800107c:	4770      	bx	lr

0800107e <MGPIO_vSetPinMode>:
/* i/p arguments: Copy_GPIOPin: MGPIO_PIN00 --> MGPIO_PIN15       */
/* i/p arguments: Copy_u8Mode: MGPIO_MODE_<Mode Type>             */
/* o/p arguments: nothing                                         */
/* Desc. : This API Allows User to Set the mode of a Specific Pin */
/******************************************************************/
void MGPIO_vSetPinMode(GPIO_t* GPIOx, MGPIO_PIN Copy_GPIOPin, u8 Copy_u8Mode) {
 800107e:	b480      	push	{r7}
 8001080:	b083      	sub	sp, #12
 8001082:	af00      	add	r7, sp, #0
 8001084:	6078      	str	r0, [r7, #4]
 8001086:	460b      	mov	r3, r1
 8001088:	70fb      	strb	r3, [r7, #3]
 800108a:	4613      	mov	r3, r2
 800108c:	70bb      	strb	r3, [r7, #2]
    /* i/p Validation */
    if (Copy_u8Mode > MGPIO_MODE_ANALOG) { return; /* Do Nothing */ }
 800108e:	78bb      	ldrb	r3, [r7, #2]
 8001090:	2b03      	cmp	r3, #3
 8001092:	d813      	bhi.n	80010bc <MGPIO_vSetPinMode+0x3e>
    WRITE_BITS(GPIOx->MODER, Copy_u8Mode, TWO_BITS, Copy_GPIOPin * 2);
 8001094:	78ba      	ldrb	r2, [r7, #2]
 8001096:	78fb      	ldrb	r3, [r7, #3]
 8001098:	005b      	lsls	r3, r3, #1
 800109a:	fa02 f303 	lsl.w	r3, r2, r3
 800109e:	4618      	mov	r0, r3
 80010a0:	687b      	ldr	r3, [r7, #4]
 80010a2:	681a      	ldr	r2, [r3, #0]
 80010a4:	78fb      	ldrb	r3, [r7, #3]
 80010a6:	005b      	lsls	r3, r3, #1
 80010a8:	2103      	movs	r1, #3
 80010aa:	fa01 f303 	lsl.w	r3, r1, r3
 80010ae:	43db      	mvns	r3, r3
 80010b0:	4013      	ands	r3, r2
 80010b2:	ea40 0203 	orr.w	r2, r0, r3
 80010b6:	687b      	ldr	r3, [r7, #4]
 80010b8:	601a      	str	r2, [r3, #0]
 80010ba:	e000      	b.n	80010be <MGPIO_vSetPinMode+0x40>
    if (Copy_u8Mode > MGPIO_MODE_ANALOG) { return; /* Do Nothing */ }
 80010bc:	bf00      	nop
}
 80010be:	370c      	adds	r7, #12
 80010c0:	46bd      	mov	sp, r7
 80010c2:	f85d 7b04 	ldr.w	r7, [sp], #4
 80010c6:	4770      	bx	lr

080010c8 <MGPIO_vSetPinOutputType>:
/* i/p arguments: Copy_GPIOPin: MGPIO_PIN00 --> MGPIO_PIN15              */
/* i/p arguments: Copy_u8Type: MGPIO_OUTPUT_TYPE_<Output Type>           */
/* o/p arguments: nothing                                                */
/* Desc. : This API Allows User to Set the Output Type of a Specific Pin */
/*************************************************************************/
void MGPIO_vSetPinOutputType(GPIO_t* GPIOx, MGPIO_PIN Copy_GPIOPin, u8 Copy_u8OType) {
 80010c8:	b480      	push	{r7}
 80010ca:	b083      	sub	sp, #12
 80010cc:	af00      	add	r7, sp, #0
 80010ce:	6078      	str	r0, [r7, #4]
 80010d0:	460b      	mov	r3, r1
 80010d2:	70fb      	strb	r3, [r7, #3]
 80010d4:	4613      	mov	r3, r2
 80010d6:	70bb      	strb	r3, [r7, #2]
    /* i/p Validation */
    if (Copy_u8OType > MGPIO_OUTPUT_TYPE_OD) { return; /* Do Nothing */ }
 80010d8:	78bb      	ldrb	r3, [r7, #2]
 80010da:	2b01      	cmp	r3, #1
 80010dc:	d811      	bhi.n	8001102 <MGPIO_vSetPinOutputType+0x3a>
    WRITE_BITS(GPIOx->OTYPER, Copy_u8OType, ONE_BIT, Copy_GPIOPin);
 80010de:	78ba      	ldrb	r2, [r7, #2]
 80010e0:	78fb      	ldrb	r3, [r7, #3]
 80010e2:	fa02 f303 	lsl.w	r3, r2, r3
 80010e6:	4618      	mov	r0, r3
 80010e8:	687b      	ldr	r3, [r7, #4]
 80010ea:	685a      	ldr	r2, [r3, #4]
 80010ec:	78fb      	ldrb	r3, [r7, #3]
 80010ee:	2101      	movs	r1, #1
 80010f0:	fa01 f303 	lsl.w	r3, r1, r3
 80010f4:	43db      	mvns	r3, r3
 80010f6:	4013      	ands	r3, r2
 80010f8:	ea40 0203 	orr.w	r2, r0, r3
 80010fc:	687b      	ldr	r3, [r7, #4]
 80010fe:	605a      	str	r2, [r3, #4]
 8001100:	e000      	b.n	8001104 <MGPIO_vSetPinOutputType+0x3c>
    if (Copy_u8OType > MGPIO_OUTPUT_TYPE_OD) { return; /* Do Nothing */ }
 8001102:	bf00      	nop
}
 8001104:	370c      	adds	r7, #12
 8001106:	46bd      	mov	sp, r7
 8001108:	f85d 7b04 	ldr.w	r7, [sp], #4
 800110c:	4770      	bx	lr

0800110e <MGPIO_vSetPinOutputSpeed>:
/* i/p arguments: Copy_GPIOPin: MGPIO_PIN00 --> MGPIO_PIN15               */
/* i/p arguments: Copy_u8Speed: MGPIO_<Speed>_SPEED                       */
/* o/p arguments: nothing                                                 */
/* Desc. : This API Allows User to Set the Output Speed of a Specific Pin */
/**************************************************************************/
void MGPIO_vSetPinOutputSpeed(GPIO_t* GPIOx, MGPIO_PIN Copy_GPIOPin, u8 Copy_u8Speed) {
 800110e:	b480      	push	{r7}
 8001110:	b083      	sub	sp, #12
 8001112:	af00      	add	r7, sp, #0
 8001114:	6078      	str	r0, [r7, #4]
 8001116:	460b      	mov	r3, r1
 8001118:	70fb      	strb	r3, [r7, #3]
 800111a:	4613      	mov	r3, r2
 800111c:	70bb      	strb	r3, [r7, #2]
    /* i/p Validation */
    if (Copy_u8Speed > MGPIO_VHIGH_SPEED) { return; /* Do Nothing */ }
 800111e:	78bb      	ldrb	r3, [r7, #2]
 8001120:	2b03      	cmp	r3, #3
 8001122:	d813      	bhi.n	800114c <MGPIO_vSetPinOutputSpeed+0x3e>
    WRITE_BITS(GPIOx->OSPEEDR, Copy_u8Speed, TWO_BITS, Copy_GPIOPin * 2);
 8001124:	78ba      	ldrb	r2, [r7, #2]
 8001126:	78fb      	ldrb	r3, [r7, #3]
 8001128:	005b      	lsls	r3, r3, #1
 800112a:	fa02 f303 	lsl.w	r3, r2, r3
 800112e:	4618      	mov	r0, r3
 8001130:	687b      	ldr	r3, [r7, #4]
 8001132:	689a      	ldr	r2, [r3, #8]
 8001134:	78fb      	ldrb	r3, [r7, #3]
 8001136:	005b      	lsls	r3, r3, #1
 8001138:	2103      	movs	r1, #3
 800113a:	fa01 f303 	lsl.w	r3, r1, r3
 800113e:	43db      	mvns	r3, r3
 8001140:	4013      	ands	r3, r2
 8001142:	ea40 0203 	orr.w	r2, r0, r3
 8001146:	687b      	ldr	r3, [r7, #4]
 8001148:	609a      	str	r2, [r3, #8]
 800114a:	e000      	b.n	800114e <MGPIO_vSetPinOutputSpeed+0x40>
    if (Copy_u8Speed > MGPIO_VHIGH_SPEED) { return; /* Do Nothing */ }
 800114c:	bf00      	nop
}
 800114e:	370c      	adds	r7, #12
 8001150:	46bd      	mov	sp, r7
 8001152:	f85d 7b04 	ldr.w	r7, [sp], #4
 8001156:	4770      	bx	lr

08001158 <MGPIO_vSetPinInputType>:
/* i/p arguments: Copy_GPIOPin: MGPIO_PIN00 --> MGPIO_PIN15             */
/* i/p arguments: Copy_u8IType: MGPIO_INPUT_TYPE_<Input Type>           */
/* o/p arguments: nothing                                               */
/* Desc. : This API Allows User to Set the Input Type of a Specific Pin */
/************************************************************************/
void MGPIO_vSetPinInputType(GPIO_t* GPIOx, MGPIO_PIN Copy_GPIOPin, u8 Copy_u8IType) {
 8001158:	b480      	push	{r7}
 800115a:	b083      	sub	sp, #12
 800115c:	af00      	add	r7, sp, #0
 800115e:	6078      	str	r0, [r7, #4]
 8001160:	460b      	mov	r3, r1
 8001162:	70fb      	strb	r3, [r7, #3]
 8001164:	4613      	mov	r3, r2
 8001166:	70bb      	strb	r3, [r7, #2]
    /* i/p Validation */
    if (Copy_u8IType > MGPIO_INPUT_TYPE_PULLDOWN) { return; /* Do Nothing */ }
 8001168:	78bb      	ldrb	r3, [r7, #2]
 800116a:	2b02      	cmp	r3, #2
 800116c:	d813      	bhi.n	8001196 <MGPIO_vSetPinInputType+0x3e>
    WRITE_BITS(GPIOx->PUPDR, Copy_u8IType, TWO_BITS, Copy_GPIOPin * 2);
 800116e:	78ba      	ldrb	r2, [r7, #2]
 8001170:	78fb      	ldrb	r3, [r7, #3]
 8001172:	005b      	lsls	r3, r3, #1
 8001174:	fa02 f303 	lsl.w	r3, r2, r3
 8001178:	4618      	mov	r0, r3
 800117a:	687b      	ldr	r3, [r7, #4]
 800117c:	68da      	ldr	r2, [r3, #12]
 800117e:	78fb      	ldrb	r3, [r7, #3]
 8001180:	005b      	lsls	r3, r3, #1
 8001182:	2103      	movs	r1, #3
 8001184:	fa01 f303 	lsl.w	r3, r1, r3
 8001188:	43db      	mvns	r3, r3
 800118a:	4013      	ands	r3, r2
 800118c:	ea40 0203 	orr.w	r2, r0, r3
 8001190:	687b      	ldr	r3, [r7, #4]
 8001192:	60da      	str	r2, [r3, #12]
 8001194:	e000      	b.n	8001198 <MGPIO_vSetPinInputType+0x40>
    if (Copy_u8IType > MGPIO_INPUT_TYPE_PULLDOWN) { return; /* Do Nothing */ }
 8001196:	bf00      	nop
}
 8001198:	370c      	adds	r7, #12
 800119a:	46bd      	mov	sp, r7
 800119c:	f85d 7b04 	ldr.w	r7, [sp], #4
 80011a0:	4770      	bx	lr

080011a2 <MGPIO_vSetPinAFDirection>:
/* i/p arguments: Copy_GPIOPin: MGPIO_PIN00 --> MGPIO_PIN15                   */
/* i/p arguments: Copy_GPIOPinDirection: MGPIO_AF00 --> MGPIO_AF15            */
/* o/p arguments: nothing                                                     */
/* Desc. : This API Allows User to Set the Direction of AF for a Specific Pin */
/******************************************************************************/
void MGPIO_vSetPinAFDirection(GPIO_t* GPIOx, MGPIO_PIN Copy_GPIOPin, MGPIO_AF Copy_GPIOAFDir) {
 80011a2:	b480      	push	{r7}
 80011a4:	b083      	sub	sp, #12
 80011a6:	af00      	add	r7, sp, #0
 80011a8:	6078      	str	r0, [r7, #4]
 80011aa:	460b      	mov	r3, r1
 80011ac:	70fb      	strb	r3, [r7, #3]
 80011ae:	4613      	mov	r3, r2
 80011b0:	70bb      	strb	r3, [r7, #2]
    if (Copy_GPIOPin <= MGPIO_PIN07) { WRITE_BITS(GPIOx->AFRL, Copy_GPIOAFDir, FOUR_BITS, Copy_GPIOPin * 4); }
 80011b2:	78fb      	ldrb	r3, [r7, #3]
 80011b4:	2b07      	cmp	r3, #7
 80011b6:	d813      	bhi.n	80011e0 <MGPIO_vSetPinAFDirection+0x3e>
 80011b8:	78ba      	ldrb	r2, [r7, #2]
 80011ba:	78fb      	ldrb	r3, [r7, #3]
 80011bc:	009b      	lsls	r3, r3, #2
 80011be:	fa02 f303 	lsl.w	r3, r2, r3
 80011c2:	4618      	mov	r0, r3
 80011c4:	687b      	ldr	r3, [r7, #4]
 80011c6:	6a1a      	ldr	r2, [r3, #32]
 80011c8:	78fb      	ldrb	r3, [r7, #3]
 80011ca:	009b      	lsls	r3, r3, #2
 80011cc:	210f      	movs	r1, #15
 80011ce:	fa01 f303 	lsl.w	r3, r1, r3
 80011d2:	43db      	mvns	r3, r3
 80011d4:	4013      	ands	r3, r2
 80011d6:	ea40 0203 	orr.w	r2, r0, r3
 80011da:	687b      	ldr	r3, [r7, #4]
 80011dc:	621a      	str	r2, [r3, #32]
    else		 					 { WRITE_BITS(GPIOx->AFRH, Copy_GPIOAFDir, FOUR_BITS, (Copy_GPIOPin - 8) * 4); }
}
 80011de:	e014      	b.n	800120a <MGPIO_vSetPinAFDirection+0x68>
    else		 					 { WRITE_BITS(GPIOx->AFRH, Copy_GPIOAFDir, FOUR_BITS, (Copy_GPIOPin - 8) * 4); }
 80011e0:	78ba      	ldrb	r2, [r7, #2]
 80011e2:	78fb      	ldrb	r3, [r7, #3]
 80011e4:	3b08      	subs	r3, #8
 80011e6:	009b      	lsls	r3, r3, #2
 80011e8:	fa02 f303 	lsl.w	r3, r2, r3
 80011ec:	4618      	mov	r0, r3
 80011ee:	687b      	ldr	r3, [r7, #4]
 80011f0:	6a5a      	ldr	r2, [r3, #36]	; 0x24
 80011f2:	78fb      	ldrb	r3, [r7, #3]
 80011f4:	3b08      	subs	r3, #8
 80011f6:	009b      	lsls	r3, r3, #2
 80011f8:	210f      	movs	r1, #15
 80011fa:	fa01 f303 	lsl.w	r3, r1, r3
 80011fe:	43db      	mvns	r3, r3
 8001200:	4013      	ands	r3, r2
 8001202:	ea40 0203 	orr.w	r2, r0, r3
 8001206:	687b      	ldr	r3, [r7, #4]
 8001208:	625a      	str	r2, [r3, #36]	; 0x24
}
 800120a:	bf00      	nop
 800120c:	370c      	adds	r7, #12
 800120e:	46bd      	mov	sp, r7
 8001210:	f85d 7b04 	ldr.w	r7, [sp], #4
 8001214:	4770      	bx	lr

08001216 <MGPIO_vSetPinValue>:
/* i/p arguments: Copy_GPIOPin: MGPIO_PIN00 --> MGPIO_PIN15        */
/* i/p arguments: Copy_GPIOPinValue: MGPIO_OUTPUT_<Output Value>   */
/* o/p arguments: nothing                                          */
/* Desc. : This API Allows User to Set the Value of a Specific Pin */
/*******************************************************************/
void MGPIO_vSetPinValue(GPIO_t* GPIOx, MGPIO_PIN Copy_GPIOPin, u8 Copy_u8Value) {
 8001216:	b480      	push	{r7}
 8001218:	b083      	sub	sp, #12
 800121a:	af00      	add	r7, sp, #0
 800121c:	6078      	str	r0, [r7, #4]
 800121e:	460b      	mov	r3, r1
 8001220:	70fb      	strb	r3, [r7, #3]
 8001222:	4613      	mov	r3, r2
 8001224:	70bb      	strb	r3, [r7, #2]
    if      (Copy_u8Value == MGPIO_OUTPUT_HIGH) { SET_BIT(GPIOx->ODR, Copy_GPIOPin); }
 8001226:	78bb      	ldrb	r3, [r7, #2]
 8001228:	2b01      	cmp	r3, #1
 800122a:	d109      	bne.n	8001240 <MGPIO_vSetPinValue+0x2a>
 800122c:	687b      	ldr	r3, [r7, #4]
 800122e:	695b      	ldr	r3, [r3, #20]
 8001230:	78fa      	ldrb	r2, [r7, #3]
 8001232:	2101      	movs	r1, #1
 8001234:	fa01 f202 	lsl.w	r2, r1, r2
 8001238:	431a      	orrs	r2, r3
 800123a:	687b      	ldr	r3, [r7, #4]
 800123c:	615a      	str	r2, [r3, #20]
    else if	(Copy_u8Value == MGPIO_OUTPUT_LOW)  { CLR_BIT(GPIOx->ODR, Copy_GPIOPin); }
}
 800123e:	e00c      	b.n	800125a <MGPIO_vSetPinValue+0x44>
    else if	(Copy_u8Value == MGPIO_OUTPUT_LOW)  { CLR_BIT(GPIOx->ODR, Copy_GPIOPin); }
 8001240:	78bb      	ldrb	r3, [r7, #2]
 8001242:	2b00      	cmp	r3, #0
 8001244:	d109      	bne.n	800125a <MGPIO_vSetPinValue+0x44>
 8001246:	687b      	ldr	r3, [r7, #4]
 8001248:	695b      	ldr	r3, [r3, #20]
 800124a:	78fa      	ldrb	r2, [r7, #3]
 800124c:	2101      	movs	r1, #1
 800124e:	fa01 f202 	lsl.w	r2, r1, r2
 8001252:	43d2      	mvns	r2, r2
 8001254:	401a      	ands	r2, r3
 8001256:	687b      	ldr	r3, [r7, #4]
 8001258:	615a      	str	r2, [r3, #20]
}
 800125a:	bf00      	nop
 800125c:	370c      	adds	r7, #12
 800125e:	46bd      	mov	sp, r7
 8001260:	f85d 7b04 	ldr.w	r7, [sp], #4
 8001264:	4770      	bx	lr

08001266 <MGPIO_u8GetPinValue>:
/* i/p arguments: GPIOx: GPIOA, GPIOB, GPIOC                       */
/* i/p arguments: Copy_GPIOPin: MGPIO_PIN00 --> MGPIO_PIN15        */
/* o/p arguments: The Value of the GPIO Pin                        */
/* Desc. : This API Allows User to Get the Value of a Specific Pin */
/*******************************************************************/
u8 MGPIO_u8GetPinValue(GPIO_t* GPIOx, MGPIO_PIN Copy_GPIOPin) {
 8001266:	b480      	push	{r7}
 8001268:	b083      	sub	sp, #12
 800126a:	af00      	add	r7, sp, #0
 800126c:	6078      	str	r0, [r7, #4]
 800126e:	460b      	mov	r3, r1
 8001270:	70fb      	strb	r3, [r7, #3]
    return GET_BIT(GPIOx->IDR, Copy_GPIOPin);
 8001272:	687b      	ldr	r3, [r7, #4]
 8001274:	691a      	ldr	r2, [r3, #16]
 8001276:	78fb      	ldrb	r3, [r7, #3]
 8001278:	fa22 f303 	lsr.w	r3, r2, r3
 800127c:	b2db      	uxtb	r3, r3
 800127e:	f003 0301 	and.w	r3, r3, #1
 8001282:	b2db      	uxtb	r3, r3
}
 8001284:	4618      	mov	r0, r3
 8001286:	370c      	adds	r7, #12
 8001288:	46bd      	mov	sp, r7
 800128a:	f85d 7b04 	ldr.w	r7, [sp], #4
 800128e:	4770      	bx	lr

08001290 <MGPT_vPWMInit>:
/* i/p arguments: GPTx: TIM2 --> TIM5 ONLY                     */
/* i/p arguments: A_InitStruct: Initialization Structure       */
/* o/p arguments: nothing                                      */
/* Desc. : This API Initializes the Selected Timer to PWM Mode */
/***************************************************************/
void MGPT_vPWMInit(GPT_t* GPTx, MGPT_PWMInitTypeDef* A_InitStruct) {
 8001290:	b480      	push	{r7}
 8001292:	b083      	sub	sp, #12
 8001294:	af00      	add	r7, sp, #0
 8001296:	6078      	str	r0, [r7, #4]
 8001298:	6039      	str	r1, [r7, #0]
	/* CLEAR CCxS[1:0] BITS
	 * SET THE POLARITY OF THE OUTPUT
	 * SET THE PWM MODE
	 * SET THE PRESCALER
	 * ENABLE PRELOAD */
	switch (A_InitStruct->Channel) {
 800129a:	683b      	ldr	r3, [r7, #0]
 800129c:	781b      	ldrb	r3, [r3, #0]
 800129e:	2b03      	cmp	r3, #3
 80012a0:	f200 80d4 	bhi.w	800144c <MGPT_vPWMInit+0x1bc>
 80012a4:	a201      	add	r2, pc, #4	; (adr r2, 80012ac <MGPT_vPWMInit+0x1c>)
 80012a6:	f852 f023 	ldr.w	pc, [r2, r3, lsl #2]
 80012aa:	bf00      	nop
 80012ac:	080012bd 	.word	0x080012bd
 80012b0:	08001321 	.word	0x08001321
 80012b4:	08001385 	.word	0x08001385
 80012b8:	080013e9 	.word	0x080013e9
		case MGPT_CHANNEL_1: WRITE_BITS(GPTx->CCMR[0], 0b00, TWO_BITS, MGPT_CCMR1_CC1S_BIT);
 80012bc:	687b      	ldr	r3, [r7, #4]
 80012be:	699b      	ldr	r3, [r3, #24]
 80012c0:	f023 0203 	bic.w	r2, r3, #3
 80012c4:	687b      	ldr	r3, [r7, #4]
 80012c6:	619a      	str	r2, [r3, #24]
							 if (A_InitStruct->Polarity) { SET_BIT(GPTx->CCER, MGPT_CCER_CC1P_BIT); }
 80012c8:	683b      	ldr	r3, [r7, #0]
 80012ca:	7b1b      	ldrb	r3, [r3, #12]
 80012cc:	2b00      	cmp	r3, #0
 80012ce:	d006      	beq.n	80012de <MGPT_vPWMInit+0x4e>
 80012d0:	687b      	ldr	r3, [r7, #4]
 80012d2:	6a1b      	ldr	r3, [r3, #32]
 80012d4:	f043 0202 	orr.w	r2, r3, #2
 80012d8:	687b      	ldr	r3, [r7, #4]
 80012da:	621a      	str	r2, [r3, #32]
 80012dc:	e005      	b.n	80012ea <MGPT_vPWMInit+0x5a>
							 else 	 					 { CLR_BIT(GPTx->CCER, MGPT_CCER_CC1P_BIT); }
 80012de:	687b      	ldr	r3, [r7, #4]
 80012e0:	6a1b      	ldr	r3, [r3, #32]
 80012e2:	f023 0202 	bic.w	r2, r3, #2
 80012e6:	687b      	ldr	r3, [r7, #4]
 80012e8:	621a      	str	r2, [r3, #32]
							 WRITE_BITS(GPTx->CCMR[0], A_InitStruct->PWMMode, THREE_BITS, MGPT_CCMR1_OC1M0_BIT);
 80012ea:	683b      	ldr	r3, [r7, #0]
 80012ec:	785b      	ldrb	r3, [r3, #1]
 80012ee:	011b      	lsls	r3, r3, #4
 80012f0:	461a      	mov	r2, r3
 80012f2:	687b      	ldr	r3, [r7, #4]
 80012f4:	699b      	ldr	r3, [r3, #24]
 80012f6:	f023 0370 	bic.w	r3, r3, #112	; 0x70
 80012fa:	431a      	orrs	r2, r3
 80012fc:	687b      	ldr	r3, [r7, #4]
 80012fe:	619a      	str	r2, [r3, #24]
							 GPTx->PSC = (u32)A_InitStruct->Prescaler - 1;
 8001300:	683b      	ldr	r3, [r7, #0]
 8001302:	891b      	ldrh	r3, [r3, #8]
 8001304:	1e5a      	subs	r2, r3, #1
 8001306:	687b      	ldr	r3, [r7, #4]
 8001308:	629a      	str	r2, [r3, #40]	; 0x28
							 GPTx->ARR = A_InitStruct->Period;
 800130a:	683b      	ldr	r3, [r7, #0]
 800130c:	685a      	ldr	r2, [r3, #4]
 800130e:	687b      	ldr	r3, [r7, #4]
 8001310:	62da      	str	r2, [r3, #44]	; 0x2c
							 SET_BIT(GPTx->CCMR[0], MGPT_CCMR1_OC1PE_BIT);
 8001312:	687b      	ldr	r3, [r7, #4]
 8001314:	699b      	ldr	r3, [r3, #24]
 8001316:	f043 0208 	orr.w	r2, r3, #8
 800131a:	687b      	ldr	r3, [r7, #4]
 800131c:	619a      	str	r2, [r3, #24]
							 break;
 800131e:	e096      	b.n	800144e <MGPT_vPWMInit+0x1be>

		case MGPT_CHANNEL_2: WRITE_BITS(GPTx->CCMR[0], 0b00, TWO_BITS, MGPT_CCMR1_CC2S_BIT);
 8001320:	687b      	ldr	r3, [r7, #4]
 8001322:	699b      	ldr	r3, [r3, #24]
 8001324:	f423 7240 	bic.w	r2, r3, #768	; 0x300
 8001328:	687b      	ldr	r3, [r7, #4]
 800132a:	619a      	str	r2, [r3, #24]
							 if (A_InitStruct->Polarity) { SET_BIT(GPTx->CCER, MGPT_CCER_CC2P_BIT); }
 800132c:	683b      	ldr	r3, [r7, #0]
 800132e:	7b1b      	ldrb	r3, [r3, #12]
 8001330:	2b00      	cmp	r3, #0
 8001332:	d006      	beq.n	8001342 <MGPT_vPWMInit+0xb2>
 8001334:	687b      	ldr	r3, [r7, #4]
 8001336:	6a1b      	ldr	r3, [r3, #32]
 8001338:	f043 0220 	orr.w	r2, r3, #32
 800133c:	687b      	ldr	r3, [r7, #4]
 800133e:	621a      	str	r2, [r3, #32]
 8001340:	e005      	b.n	800134e <MGPT_vPWMInit+0xbe>
							 else 	 					 { CLR_BIT(GPTx->CCER, MGPT_CCER_CC2P_BIT); }
 8001342:	687b      	ldr	r3, [r7, #4]
 8001344:	6a1b      	ldr	r3, [r3, #32]
 8001346:	f023 0220 	bic.w	r2, r3, #32
 800134a:	687b      	ldr	r3, [r7, #4]
 800134c:	621a      	str	r2, [r3, #32]
							 WRITE_BITS(GPTx->CCMR[0], A_InitStruct->PWMMode, THREE_BITS, MGPT_CCMR1_OC2M0_BIT);
 800134e:	683b      	ldr	r3, [r7, #0]
 8001350:	785b      	ldrb	r3, [r3, #1]
 8001352:	031b      	lsls	r3, r3, #12
 8001354:	461a      	mov	r2, r3
 8001356:	687b      	ldr	r3, [r7, #4]
 8001358:	699b      	ldr	r3, [r3, #24]
 800135a:	f423 43e0 	bic.w	r3, r3, #28672	; 0x7000
 800135e:	431a      	orrs	r2, r3
 8001360:	687b      	ldr	r3, [r7, #4]
 8001362:	619a      	str	r2, [r3, #24]
							 GPTx->PSC = (u32)A_InitStruct->Prescaler;
 8001364:	683b      	ldr	r3, [r7, #0]
 8001366:	891b      	ldrh	r3, [r3, #8]
 8001368:	461a      	mov	r2, r3
 800136a:	687b      	ldr	r3, [r7, #4]
 800136c:	629a      	str	r2, [r3, #40]	; 0x28
							 GPTx->ARR = A_InitStruct->Period;
 800136e:	683b      	ldr	r3, [r7, #0]
 8001370:	685a      	ldr	r2, [r3, #4]
 8001372:	687b      	ldr	r3, [r7, #4]
 8001374:	62da      	str	r2, [r3, #44]	; 0x2c
							 SET_BIT(GPTx->CCMR[0], MGPT_CCMR1_OC2PE_BIT);
 8001376:	687b      	ldr	r3, [r7, #4]
 8001378:	699b      	ldr	r3, [r3, #24]
 800137a:	f443 6200 	orr.w	r2, r3, #2048	; 0x800
 800137e:	687b      	ldr	r3, [r7, #4]
 8001380:	619a      	str	r2, [r3, #24]
							 break;
 8001382:	e064      	b.n	800144e <MGPT_vPWMInit+0x1be>

		case MGPT_CHANNEL_3: WRITE_BITS(GPTx->CCMR[1], 0b00, TWO_BITS, MGPT_CCMR2_CC3S_BIT);
 8001384:	687b      	ldr	r3, [r7, #4]
 8001386:	69db      	ldr	r3, [r3, #28]
 8001388:	f023 0203 	bic.w	r2, r3, #3
 800138c:	687b      	ldr	r3, [r7, #4]
 800138e:	61da      	str	r2, [r3, #28]
							 if (A_InitStruct->Polarity) { SET_BIT(GPTx->CCER, MGPT_CCER_CC3P_BIT); }
 8001390:	683b      	ldr	r3, [r7, #0]
 8001392:	7b1b      	ldrb	r3, [r3, #12]
 8001394:	2b00      	cmp	r3, #0
 8001396:	d006      	beq.n	80013a6 <MGPT_vPWMInit+0x116>
 8001398:	687b      	ldr	r3, [r7, #4]
 800139a:	6a1b      	ldr	r3, [r3, #32]
 800139c:	f443 7200 	orr.w	r2, r3, #512	; 0x200
 80013a0:	687b      	ldr	r3, [r7, #4]
 80013a2:	621a      	str	r2, [r3, #32]
 80013a4:	e005      	b.n	80013b2 <MGPT_vPWMInit+0x122>
							 else 	 					 { CLR_BIT(GPTx->CCER, MGPT_CCER_CC3P_BIT); }
 80013a6:	687b      	ldr	r3, [r7, #4]
 80013a8:	6a1b      	ldr	r3, [r3, #32]
 80013aa:	f423 7200 	bic.w	r2, r3, #512	; 0x200
 80013ae:	687b      	ldr	r3, [r7, #4]
 80013b0:	621a      	str	r2, [r3, #32]
							 WRITE_BITS(GPTx->CCMR[1], A_InitStruct->PWMMode, THREE_BITS, MGPT_CCMR2_OC3M0_BIT);
 80013b2:	683b      	ldr	r3, [r7, #0]
 80013b4:	785b      	ldrb	r3, [r3, #1]
 80013b6:	011b      	lsls	r3, r3, #4
 80013b8:	461a      	mov	r2, r3
 80013ba:	687b      	ldr	r3, [r7, #4]
 80013bc:	69db      	ldr	r3, [r3, #28]
 80013be:	f023 0370 	bic.w	r3, r3, #112	; 0x70
 80013c2:	431a      	orrs	r2, r3
 80013c4:	687b      	ldr	r3, [r7, #4]
 80013c6:	61da      	str	r2, [r3, #28]
							 GPTx->PSC = (u32)A_InitStruct->Prescaler;
 80013c8:	683b      	ldr	r3, [r7, #0]
 80013ca:	891b      	ldrh	r3, [r3, #8]
 80013cc:	461a      	mov	r2, r3
 80013ce:	687b      	ldr	r3, [r7, #4]
 80013d0:	629a      	str	r2, [r3, #40]	; 0x28
							 GPTx->ARR = A_InitStruct->Period;
 80013d2:	683b      	ldr	r3, [r7, #0]
 80013d4:	685a      	ldr	r2, [r3, #4]
 80013d6:	687b      	ldr	r3, [r7, #4]
 80013d8:	62da      	str	r2, [r3, #44]	; 0x2c
							 SET_BIT(GPTx->CCMR[1], MGPT_CCMR2_OC3PE_BIT);
 80013da:	687b      	ldr	r3, [r7, #4]
 80013dc:	69db      	ldr	r3, [r3, #28]
 80013de:	f043 0208 	orr.w	r2, r3, #8
 80013e2:	687b      	ldr	r3, [r7, #4]
 80013e4:	61da      	str	r2, [r3, #28]
							 break;
 80013e6:	e032      	b.n	800144e <MGPT_vPWMInit+0x1be>

		case MGPT_CHANNEL_4: WRITE_BITS(GPTx->CCMR[1], 0b00, TWO_BITS, MGPT_CCMR2_CC4S_BIT);
 80013e8:	687b      	ldr	r3, [r7, #4]
 80013ea:	69db      	ldr	r3, [r3, #28]
 80013ec:	f423 7240 	bic.w	r2, r3, #768	; 0x300
 80013f0:	687b      	ldr	r3, [r7, #4]
 80013f2:	61da      	str	r2, [r3, #28]
							 if (A_InitStruct->Polarity) { SET_BIT(GPTx->CCER, MGPT_CCER_CC4P_BIT); }
 80013f4:	683b      	ldr	r3, [r7, #0]
 80013f6:	7b1b      	ldrb	r3, [r3, #12]
 80013f8:	2b00      	cmp	r3, #0
 80013fa:	d006      	beq.n	800140a <MGPT_vPWMInit+0x17a>
 80013fc:	687b      	ldr	r3, [r7, #4]
 80013fe:	6a1b      	ldr	r3, [r3, #32]
 8001400:	f443 5200 	orr.w	r2, r3, #8192	; 0x2000
 8001404:	687b      	ldr	r3, [r7, #4]
 8001406:	621a      	str	r2, [r3, #32]
 8001408:	e005      	b.n	8001416 <MGPT_vPWMInit+0x186>
							 else 	 					 { CLR_BIT(GPTx->CCER, MGPT_CCER_CC4P_BIT); }
 800140a:	687b      	ldr	r3, [r7, #4]
 800140c:	6a1b      	ldr	r3, [r3, #32]
 800140e:	f423 5200 	bic.w	r2, r3, #8192	; 0x2000
 8001412:	687b      	ldr	r3, [r7, #4]
 8001414:	621a      	str	r2, [r3, #32]
							 WRITE_BITS(GPTx->CCMR[1], A_InitStruct->PWMMode, THREE_BITS, MGPT_CCMR2_OC4M0_BIT);
 8001416:	683b      	ldr	r3, [r7, #0]
 8001418:	785b      	ldrb	r3, [r3, #1]
 800141a:	031b      	lsls	r3, r3, #12
 800141c:	461a      	mov	r2, r3
 800141e:	687b      	ldr	r3, [r7, #4]
 8001420:	69db      	ldr	r3, [r3, #28]
 8001422:	f423 43e0 	bic.w	r3, r3, #28672	; 0x7000
 8001426:	431a      	orrs	r2, r3
 8001428:	687b      	ldr	r3, [r7, #4]
 800142a:	61da      	str	r2, [r3, #28]
							 GPTx->PSC = (u32)A_InitStruct->Prescaler;
 800142c:	683b      	ldr	r3, [r7, #0]
 800142e:	891b      	ldrh	r3, [r3, #8]
 8001430:	461a      	mov	r2, r3
 8001432:	687b      	ldr	r3, [r7, #4]
 8001434:	629a      	str	r2, [r3, #40]	; 0x28
							 GPTx->ARR = A_InitStruct->Period;
 8001436:	683b      	ldr	r3, [r7, #0]
 8001438:	685a      	ldr	r2, [r3, #4]
 800143a:	687b      	ldr	r3, [r7, #4]
 800143c:	62da      	str	r2, [r3, #44]	; 0x2c
							 SET_BIT(GPTx->CCMR[1], MGPT_CCMR2_OC4PE_BIT);
 800143e:	687b      	ldr	r3, [r7, #4]
 8001440:	69db      	ldr	r3, [r3, #28]
 8001442:	f443 6200 	orr.w	r2, r3, #2048	; 0x800
 8001446:	687b      	ldr	r3, [r7, #4]
 8001448:	61da      	str	r2, [r3, #28]
							 break;
 800144a:	e000      	b.n	800144e <MGPT_vPWMInit+0x1be>
		default: break;
 800144c:	bf00      	nop
	}
	/* ENABLE AUTO-RELOAD PRELOAD */
	SET_BIT(GPTx->CR1, MGPT_CR1_ARPE_BIT);
 800144e:	687b      	ldr	r3, [r7, #4]
 8001450:	681b      	ldr	r3, [r3, #0]
 8001452:	f043 0280 	orr.w	r2, r3, #128	; 0x80
 8001456:	687b      	ldr	r3, [r7, #4]
 8001458:	601a      	str	r2, [r3, #0]
	/* SET COUNTING MODE AND DIRECTION */
	WRITE_BITS(GPTx->CR1, A_InitStruct->CountingMode, TWO_BITS, MGPT_CR1_CMS0_BIT);
 800145a:	683b      	ldr	r3, [r7, #0]
 800145c:	7a9b      	ldrb	r3, [r3, #10]
 800145e:	015b      	lsls	r3, r3, #5
 8001460:	461a      	mov	r2, r3
 8001462:	687b      	ldr	r3, [r7, #4]
 8001464:	681b      	ldr	r3, [r3, #0]
 8001466:	f023 0360 	bic.w	r3, r3, #96	; 0x60
 800146a:	431a      	orrs	r2, r3
 800146c:	687b      	ldr	r3, [r7, #4]
 800146e:	601a      	str	r2, [r3, #0]
	if (!A_InitStruct->CountingMode) {
 8001470:	683b      	ldr	r3, [r7, #0]
 8001472:	7a9b      	ldrb	r3, [r3, #10]
 8001474:	2b00      	cmp	r3, #0
 8001476:	d110      	bne.n	800149a <MGPT_vPWMInit+0x20a>
		if (A_InitStruct->Direction) { SET_BIT(GPTx->CR1, MGPT_CR1_DIR_BIT); }
 8001478:	683b      	ldr	r3, [r7, #0]
 800147a:	7adb      	ldrb	r3, [r3, #11]
 800147c:	2b00      	cmp	r3, #0
 800147e:	d006      	beq.n	800148e <MGPT_vPWMInit+0x1fe>
 8001480:	687b      	ldr	r3, [r7, #4]
 8001482:	681b      	ldr	r3, [r3, #0]
 8001484:	f043 0210 	orr.w	r2, r3, #16
 8001488:	687b      	ldr	r3, [r7, #4]
 800148a:	601a      	str	r2, [r3, #0]
 800148c:	e005      	b.n	800149a <MGPT_vPWMInit+0x20a>
		else						 { CLR_BIT(GPTx->CR1, MGPT_CR1_DIR_BIT); }
 800148e:	687b      	ldr	r3, [r7, #4]
 8001490:	681b      	ldr	r3, [r3, #0]
 8001492:	f023 0210 	bic.w	r2, r3, #16
 8001496:	687b      	ldr	r3, [r7, #4]
 8001498:	601a      	str	r2, [r3, #0]
	}
	/* ENABLE CAPTURE/COMPARE OUTPUT */
	switch (A_InitStruct->Channel) {
 800149a:	683b      	ldr	r3, [r7, #0]
 800149c:	781b      	ldrb	r3, [r3, #0]
 800149e:	2b03      	cmp	r3, #3
 80014a0:	d826      	bhi.n	80014f0 <MGPT_vPWMInit+0x260>
 80014a2:	a201      	add	r2, pc, #4	; (adr r2, 80014a8 <MGPT_vPWMInit+0x218>)
 80014a4:	f852 f023 	ldr.w	pc, [r2, r3, lsl #2]
 80014a8:	080014b9 	.word	0x080014b9
 80014ac:	080014c7 	.word	0x080014c7
 80014b0:	080014d5 	.word	0x080014d5
 80014b4:	080014e3 	.word	0x080014e3
		case MGPT_CHANNEL_1: SET_BIT(GPTx->CCER, MGPT_CCER_CC1E_BIT); break;
 80014b8:	687b      	ldr	r3, [r7, #4]
 80014ba:	6a1b      	ldr	r3, [r3, #32]
 80014bc:	f043 0201 	orr.w	r2, r3, #1
 80014c0:	687b      	ldr	r3, [r7, #4]
 80014c2:	621a      	str	r2, [r3, #32]
 80014c4:	e015      	b.n	80014f2 <MGPT_vPWMInit+0x262>
		case MGPT_CHANNEL_2: SET_BIT(GPTx->CCER, MGPT_CCER_CC2E_BIT); break;
 80014c6:	687b      	ldr	r3, [r7, #4]
 80014c8:	6a1b      	ldr	r3, [r3, #32]
 80014ca:	f043 0210 	orr.w	r2, r3, #16
 80014ce:	687b      	ldr	r3, [r7, #4]
 80014d0:	621a      	str	r2, [r3, #32]
 80014d2:	e00e      	b.n	80014f2 <MGPT_vPWMInit+0x262>
		case MGPT_CHANNEL_3: SET_BIT(GPTx->CCER, MGPT_CCER_CC3E_BIT); break;
 80014d4:	687b      	ldr	r3, [r7, #4]
 80014d6:	6a1b      	ldr	r3, [r3, #32]
 80014d8:	f443 7280 	orr.w	r2, r3, #256	; 0x100
 80014dc:	687b      	ldr	r3, [r7, #4]
 80014de:	621a      	str	r2, [r3, #32]
 80014e0:	e007      	b.n	80014f2 <MGPT_vPWMInit+0x262>
		case MGPT_CHANNEL_4: SET_BIT(GPTx->CCER, MGPT_CCER_CC4E_BIT); break;
 80014e2:	687b      	ldr	r3, [r7, #4]
 80014e4:	6a1b      	ldr	r3, [r3, #32]
 80014e6:	f443 5280 	orr.w	r2, r3, #4096	; 0x1000
 80014ea:	687b      	ldr	r3, [r7, #4]
 80014ec:	621a      	str	r2, [r3, #32]
 80014ee:	e000      	b.n	80014f2 <MGPT_vPWMInit+0x262>
		default: break;
 80014f0:	bf00      	nop
	}
	/* ENABLE COUNTER */
	SET_BIT(GPTx->CR1, MGPT_CR1_CEN_BIT);
 80014f2:	687b      	ldr	r3, [r7, #4]
 80014f4:	681b      	ldr	r3, [r3, #0]
 80014f6:	f043 0201 	orr.w	r2, r3, #1
 80014fa:	687b      	ldr	r3, [r7, #4]
 80014fc:	601a      	str	r2, [r3, #0]
}
 80014fe:	bf00      	nop
 8001500:	370c      	adds	r7, #12
 8001502:	46bd      	mov	sp, r7
 8001504:	f85d 7b04 	ldr.w	r7, [sp], #4
 8001508:	4770      	bx	lr
 800150a:	bf00      	nop

0800150c <MGPT_vSetPWMDutyCycle>:
/* i/p arguments: Copy_u8Channel: MGPT_CHANNEL_<Number>					  */
/* i/p arguments: Copy_u32DutyCycle: Duty Cycle                           */
/* o/p arguments: nothing                                                 */
/* Desc. : This API Sets the Duty Cycle of the Selected Timer in PWM Mode */
/**************************************************************************/
void MGPT_vSetPWMDutyCycle(GPT_t* GPTx, u8 Copy_u8Channel, u32 Copy_u32DutyCycle) {
 800150c:	b480      	push	{r7}
 800150e:	b085      	sub	sp, #20
 8001510:	af00      	add	r7, sp, #0
 8001512:	60f8      	str	r0, [r7, #12]
 8001514:	460b      	mov	r3, r1
 8001516:	607a      	str	r2, [r7, #4]
 8001518:	72fb      	strb	r3, [r7, #11]
	GPTx->CCR[Copy_u8Channel] = Copy_u32DutyCycle;
 800151a:	7afb      	ldrb	r3, [r7, #11]
 800151c:	68fa      	ldr	r2, [r7, #12]
 800151e:	330c      	adds	r3, #12
 8001520:	009b      	lsls	r3, r3, #2
 8001522:	4413      	add	r3, r2
 8001524:	687a      	ldr	r2, [r7, #4]
 8001526:	605a      	str	r2, [r3, #4]
}
 8001528:	bf00      	nop
 800152a:	3714      	adds	r7, #20
 800152c:	46bd      	mov	sp, r7
 800152e:	f85d 7b04 	ldr.w	r7, [sp], #4
 8001532:	4770      	bx	lr

08001534 <TIM2_IRQHandler>:


/**********************************************/
/*             INTERRUPT HANDLERS             */
/**********************************************/
void TIM2_IRQHandler(void) {
 8001534:	b580      	push	{r7, lr}
 8001536:	af00      	add	r7, sp, #0
	GPT2->SR = 0;
 8001538:	f04f 4380 	mov.w	r3, #1073741824	; 0x40000000
 800153c:	2200      	movs	r2, #0
 800153e:	611a      	str	r2, [r3, #16]
	GPT2->CNT = 0;
 8001540:	f04f 4380 	mov.w	r3, #1073741824	; 0x40000000
 8001544:	2200      	movs	r2, #0
 8001546:	625a      	str	r2, [r3, #36]	; 0x24
	MGPT_CALLBACKS[0]();
 8001548:	4b02      	ldr	r3, [pc, #8]	; (8001554 <TIM2_IRQHandler+0x20>)
 800154a:	681b      	ldr	r3, [r3, #0]
 800154c:	4798      	blx	r3
}
 800154e:	bf00      	nop
 8001550:	bd80      	pop	{r7, pc}
 8001552:	bf00      	nop
 8001554:	2000001c 	.word	0x2000001c

08001558 <TIM3_IRQHandler>:

void TIM3_IRQHandler(void) {
 8001558:	b580      	push	{r7, lr}
 800155a:	af00      	add	r7, sp, #0
	GPT3->SR = 0;
 800155c:	4b03      	ldr	r3, [pc, #12]	; (800156c <TIM3_IRQHandler+0x14>)
 800155e:	2200      	movs	r2, #0
 8001560:	611a      	str	r2, [r3, #16]
	MGPT_CALLBACKS[1]();
 8001562:	4b03      	ldr	r3, [pc, #12]	; (8001570 <TIM3_IRQHandler+0x18>)
 8001564:	685b      	ldr	r3, [r3, #4]
 8001566:	4798      	blx	r3
}
 8001568:	bf00      	nop
 800156a:	bd80      	pop	{r7, pc}
 800156c:	40000400 	.word	0x40000400
 8001570:	2000001c 	.word	0x2000001c

08001574 <TIM4_IRQHandler>:

void TIM4_IRQHandler(void) {
 8001574:	b580      	push	{r7, lr}
 8001576:	af00      	add	r7, sp, #0
	GPT4->SR = 0;
 8001578:	4b03      	ldr	r3, [pc, #12]	; (8001588 <TIM4_IRQHandler+0x14>)
 800157a:	2200      	movs	r2, #0
 800157c:	611a      	str	r2, [r3, #16]
	MGPT_CALLBACKS[2]();
 800157e:	4b03      	ldr	r3, [pc, #12]	; (800158c <TIM4_IRQHandler+0x18>)
 8001580:	689b      	ldr	r3, [r3, #8]
 8001582:	4798      	blx	r3
}
 8001584:	bf00      	nop
 8001586:	bd80      	pop	{r7, pc}
 8001588:	40000800 	.word	0x40000800
 800158c:	2000001c 	.word	0x2000001c

08001590 <TIM5_IRQHandler>:

void TIM5_IRQHandler(void) {
 8001590:	b580      	push	{r7, lr}
 8001592:	af00      	add	r7, sp, #0
	GPT5->SR = 0;
 8001594:	4b03      	ldr	r3, [pc, #12]	; (80015a4 <TIM5_IRQHandler+0x14>)
 8001596:	2200      	movs	r2, #0
 8001598:	611a      	str	r2, [r3, #16]
	MGPT_CALLBACKS[3]();
 800159a:	4b03      	ldr	r3, [pc, #12]	; (80015a8 <TIM5_IRQHandler+0x18>)
 800159c:	68db      	ldr	r3, [r3, #12]
 800159e:	4798      	blx	r3
}
 80015a0:	bf00      	nop
 80015a2:	bd80      	pop	{r7, pc}
 80015a4:	40000c00 	.word	0x40000c00
 80015a8:	2000001c 	.word	0x2000001c

080015ac <MNVIC_vInit>:
/* Func. Name: MNVIC_vInit           */
/* i/p arguments: Nothing            */
/* o/p arguments: Nothing            */
/* Desc. : This API initializes NVIC */
/*************************************/
void MNVIC_vInit(void) {
 80015ac:	b480      	push	{r7}
 80015ae:	af00      	add	r7, sp, #0
	SCB_AIRCR = VECT_KEY | (_MNVIC_PRIORITY_CONFIGURATION_ << 8);
 80015b0:	4b03      	ldr	r3, [pc, #12]	; (80015c0 <MNVIC_vInit+0x14>)
 80015b2:	4a04      	ldr	r2, [pc, #16]	; (80015c4 <MNVIC_vInit+0x18>)
 80015b4:	601a      	str	r2, [r3, #0]
}
 80015b6:	bf00      	nop
 80015b8:	46bd      	mov	sp, r7
 80015ba:	f85d 7b04 	ldr.w	r7, [sp], #4
 80015be:	4770      	bx	lr
 80015c0:	e000ed0c 	.word	0xe000ed0c
 80015c4:	05fa0500 	.word	0x05fa0500

080015c8 <MRCC_vInitSysAndBusClock>:
/* Func. Name: MRCC_vInitSysAndBusClock 						  */
/* i/p arguments: nothing              	   						  */
/* o/p arguments: nothing              							  */
/* Desc. : This API Initializes the The System CLK and Busses CLK */
/******************************************************************/
void MRCC_vInitSysAndBusClock() {
 80015c8:	b480      	push	{r7}
 80015ca:	af00      	add	r7, sp, #0
	#if MRCC_SYSTEM_CLOCK_SOURCE == MRCC_HSI_CLK_SOURCE
		/* Enable HSI */
		SET_BIT(RCC_CR, MRCC_CR_HSION_BIT);
 80015cc:	4b19      	ldr	r3, [pc, #100]	; (8001634 <MRCC_vInitSysAndBusClock+0x6c>)
 80015ce:	681b      	ldr	r3, [r3, #0]
 80015d0:	4a18      	ldr	r2, [pc, #96]	; (8001634 <MRCC_vInitSysAndBusClock+0x6c>)
 80015d2:	f043 0301 	orr.w	r3, r3, #1
 80015d6:	6013      	str	r3, [r2, #0]
		/* Trim HSI */
		WRITE_BITS(RCC_CR, MRCC_HSI_TRIMMING, FIVE_BITS, MRCC_CR_HSITRIM_BIT);
 80015d8:	4b16      	ldr	r3, [pc, #88]	; (8001634 <MRCC_vInitSysAndBusClock+0x6c>)
 80015da:	681b      	ldr	r3, [r3, #0]
 80015dc:	f023 03f8 	bic.w	r3, r3, #248	; 0xf8
 80015e0:	4a14      	ldr	r2, [pc, #80]	; (8001634 <MRCC_vInitSysAndBusClock+0x6c>)
 80015e2:	f043 0380 	orr.w	r3, r3, #128	; 0x80
 80015e6:	6013      	str	r3, [r2, #0]
		/* Switch System Clock to HSI */
		WRITE_BITS(RCC_CFGR, MRCC_SW_SWITCH_TO_HSI, TWO_BITS, MRCC_CFGR_SW_BIT);
 80015e8:	4b13      	ldr	r3, [pc, #76]	; (8001638 <MRCC_vInitSysAndBusClock+0x70>)
 80015ea:	681b      	ldr	r3, [r3, #0]
 80015ec:	4a12      	ldr	r2, [pc, #72]	; (8001638 <MRCC_vInitSysAndBusClock+0x70>)
 80015ee:	f023 0303 	bic.w	r3, r3, #3
 80015f2:	6013      	str	r3, [r2, #0]
		/* booling till HSI is Stable */
		while(!GET_BIT(RCC_CR, MRCC_CR_HSIRDY_BIT));
 80015f4:	bf00      	nop
 80015f6:	4b0f      	ldr	r3, [pc, #60]	; (8001634 <MRCC_vInitSysAndBusClock+0x6c>)
 80015f8:	681b      	ldr	r3, [r3, #0]
 80015fa:	f003 0302 	and.w	r3, r3, #2
 80015fe:	2b00      	cmp	r3, #0
 8001600:	d0f9      	beq.n	80015f6 <MRCC_vInitSysAndBusClock+0x2e>
		while(!GET_BIT(RCC_CR, MRCC_CR_PLLRDY_BIT));
	#else
		#warning "Invalid Clock Source Configuration!"
	#endif
	/* Set the AHB Prescaler */
	WRITE_BITS(RCC_CFGR, MRCC_AHB_PRESCALER, FOUR_BITS, MRCC_CFGR_HPRE_BIT);
 8001602:	4b0d      	ldr	r3, [pc, #52]	; (8001638 <MRCC_vInitSysAndBusClock+0x70>)
 8001604:	681b      	ldr	r3, [r3, #0]
 8001606:	f023 03f0 	bic.w	r3, r3, #240	; 0xf0
 800160a:	4a0b      	ldr	r2, [pc, #44]	; (8001638 <MRCC_vInitSysAndBusClock+0x70>)
 800160c:	f043 0380 	orr.w	r3, r3, #128	; 0x80
 8001610:	6013      	str	r3, [r2, #0]
	/* Set the APB1 Prescaler */
	WRITE_BITS(RCC_CFGR, MRCC_APB1_PRESCALER, THREE_BITS, MRCC_CFGR_PPRE1_BIT);
 8001612:	4b09      	ldr	r3, [pc, #36]	; (8001638 <MRCC_vInitSysAndBusClock+0x70>)
 8001614:	681b      	ldr	r3, [r3, #0]
 8001616:	4a08      	ldr	r2, [pc, #32]	; (8001638 <MRCC_vInitSysAndBusClock+0x70>)
 8001618:	f423 53e0 	bic.w	r3, r3, #7168	; 0x1c00
 800161c:	6013      	str	r3, [r2, #0]
	/* Set the APB2 Prescaler */
	WRITE_BITS(RCC_CFGR, MRCC_APB2_PRESCALER, THREE_BITS, MRCC_CFGR_PPRE2_BIT);
 800161e:	4b06      	ldr	r3, [pc, #24]	; (8001638 <MRCC_vInitSysAndBusClock+0x70>)
 8001620:	681b      	ldr	r3, [r3, #0]
 8001622:	4a05      	ldr	r2, [pc, #20]	; (8001638 <MRCC_vInitSysAndBusClock+0x70>)
 8001624:	f423 4360 	bic.w	r3, r3, #57344	; 0xe000
 8001628:	6013      	str	r3, [r2, #0]
}
 800162a:	bf00      	nop
 800162c:	46bd      	mov	sp, r7
 800162e:	f85d 7b04 	ldr.w	r7, [sp], #4
 8001632:	4770      	bx	lr
 8001634:	40023800 	.word	0x40023800
 8001638:	40023808 	.word	0x40023808

0800163c <MRCC_vEnablePeriphClock>:
/* i/p arguments: Copy_BusID: MRCC_BUS_AHB1 -->  MRCC_BUS_APB2LP             */
/* i/p arguments: Copy_PeriphID: <PeripheralName>EN || <PeripheralName>LPEN  */
/* o/p arguments: nothing                                                    */
/* Desc. : This API Allows the User to Enable CLK for a Specific Peripheral  */
/*****************************************************************************/
void MRCC_vEnablePeriphClock(MRCC_BUS Copy_BusID, MRCC_PeriphClock Copy_PeriphID) {
 800163c:	b480      	push	{r7}
 800163e:	b083      	sub	sp, #12
 8001640:	af00      	add	r7, sp, #0
 8001642:	4603      	mov	r3, r0
 8001644:	460a      	mov	r2, r1
 8001646:	71fb      	strb	r3, [r7, #7]
 8001648:	4613      	mov	r3, r2
 800164a:	71bb      	strb	r3, [r7, #6]
	switch (Copy_BusID) {
 800164c:	79fb      	ldrb	r3, [r7, #7]
 800164e:	2b07      	cmp	r3, #7
 8001650:	d86a      	bhi.n	8001728 <MRCC_vEnablePeriphClock+0xec>
 8001652:	a201      	add	r2, pc, #4	; (adr r2, 8001658 <MRCC_vEnablePeriphClock+0x1c>)
 8001654:	f852 f023 	ldr.w	pc, [r2, r3, lsl #2]
 8001658:	08001679 	.word	0x08001679
 800165c:	0800168f 	.word	0x0800168f
 8001660:	080016a5 	.word	0x080016a5
 8001664:	080016bb 	.word	0x080016bb
 8001668:	080016d1 	.word	0x080016d1
 800166c:	080016e7 	.word	0x080016e7
 8001670:	080016fd 	.word	0x080016fd
 8001674:	08001713 	.word	0x08001713
		case MRCC_BUS_AHB1:   SET_BIT(RCC_AHB1ENR, Copy_PeriphID);   break;
 8001678:	4b2f      	ldr	r3, [pc, #188]	; (8001738 <MRCC_vEnablePeriphClock+0xfc>)
 800167a:	681b      	ldr	r3, [r3, #0]
 800167c:	79ba      	ldrb	r2, [r7, #6]
 800167e:	2101      	movs	r1, #1
 8001680:	fa01 f202 	lsl.w	r2, r1, r2
 8001684:	4611      	mov	r1, r2
 8001686:	4a2c      	ldr	r2, [pc, #176]	; (8001738 <MRCC_vEnablePeriphClock+0xfc>)
 8001688:	430b      	orrs	r3, r1
 800168a:	6013      	str	r3, [r2, #0]
 800168c:	e04d      	b.n	800172a <MRCC_vEnablePeriphClock+0xee>
        case MRCC_BUS_AHB2:   SET_BIT(RCC_AHB2ENR, Copy_PeriphID);   break;
 800168e:	4b2b      	ldr	r3, [pc, #172]	; (800173c <MRCC_vEnablePeriphClock+0x100>)
 8001690:	681b      	ldr	r3, [r3, #0]
 8001692:	79ba      	ldrb	r2, [r7, #6]
 8001694:	2101      	movs	r1, #1
 8001696:	fa01 f202 	lsl.w	r2, r1, r2
 800169a:	4611      	mov	r1, r2
 800169c:	4a27      	ldr	r2, [pc, #156]	; (800173c <MRCC_vEnablePeriphClock+0x100>)
 800169e:	430b      	orrs	r3, r1
 80016a0:	6013      	str	r3, [r2, #0]
 80016a2:	e042      	b.n	800172a <MRCC_vEnablePeriphClock+0xee>
        case MRCC_BUS_APB1:   SET_BIT(RCC_APB1ENR, Copy_PeriphID);   break;
 80016a4:	4b26      	ldr	r3, [pc, #152]	; (8001740 <MRCC_vEnablePeriphClock+0x104>)
 80016a6:	681b      	ldr	r3, [r3, #0]
 80016a8:	79ba      	ldrb	r2, [r7, #6]
 80016aa:	2101      	movs	r1, #1
 80016ac:	fa01 f202 	lsl.w	r2, r1, r2
 80016b0:	4611      	mov	r1, r2
 80016b2:	4a23      	ldr	r2, [pc, #140]	; (8001740 <MRCC_vEnablePeriphClock+0x104>)
 80016b4:	430b      	orrs	r3, r1
 80016b6:	6013      	str	r3, [r2, #0]
 80016b8:	e037      	b.n	800172a <MRCC_vEnablePeriphClock+0xee>
        case MRCC_BUS_APB2:   SET_BIT(RCC_APB2ENR, Copy_PeriphID);   break;
 80016ba:	4b22      	ldr	r3, [pc, #136]	; (8001744 <MRCC_vEnablePeriphClock+0x108>)
 80016bc:	681b      	ldr	r3, [r3, #0]
 80016be:	79ba      	ldrb	r2, [r7, #6]
 80016c0:	2101      	movs	r1, #1
 80016c2:	fa01 f202 	lsl.w	r2, r1, r2
 80016c6:	4611      	mov	r1, r2
 80016c8:	4a1e      	ldr	r2, [pc, #120]	; (8001744 <MRCC_vEnablePeriphClock+0x108>)
 80016ca:	430b      	orrs	r3, r1
 80016cc:	6013      	str	r3, [r2, #0]
 80016ce:	e02c      	b.n	800172a <MRCC_vEnablePeriphClock+0xee>
		case MRCC_BUS_AHB1LP: SET_BIT(RCC_AHB1LPENR, Copy_PeriphID); break;
 80016d0:	4b1d      	ldr	r3, [pc, #116]	; (8001748 <MRCC_vEnablePeriphClock+0x10c>)
 80016d2:	681b      	ldr	r3, [r3, #0]
 80016d4:	79ba      	ldrb	r2, [r7, #6]
 80016d6:	2101      	movs	r1, #1
 80016d8:	fa01 f202 	lsl.w	r2, r1, r2
 80016dc:	4611      	mov	r1, r2
 80016de:	4a1a      	ldr	r2, [pc, #104]	; (8001748 <MRCC_vEnablePeriphClock+0x10c>)
 80016e0:	430b      	orrs	r3, r1
 80016e2:	6013      	str	r3, [r2, #0]
 80016e4:	e021      	b.n	800172a <MRCC_vEnablePeriphClock+0xee>
        case MRCC_BUS_AHB2LP: SET_BIT(RCC_AHB2LPENR, Copy_PeriphID); break;
 80016e6:	4b19      	ldr	r3, [pc, #100]	; (800174c <MRCC_vEnablePeriphClock+0x110>)
 80016e8:	681b      	ldr	r3, [r3, #0]
 80016ea:	79ba      	ldrb	r2, [r7, #6]
 80016ec:	2101      	movs	r1, #1
 80016ee:	fa01 f202 	lsl.w	r2, r1, r2
 80016f2:	4611      	mov	r1, r2
 80016f4:	4a15      	ldr	r2, [pc, #84]	; (800174c <MRCC_vEnablePeriphClock+0x110>)
 80016f6:	430b      	orrs	r3, r1
 80016f8:	6013      	str	r3, [r2, #0]
 80016fa:	e016      	b.n	800172a <MRCC_vEnablePeriphClock+0xee>
        case MRCC_BUS_APB1LP: SET_BIT(RCC_APB1LPENR, Copy_PeriphID); break;
 80016fc:	4b14      	ldr	r3, [pc, #80]	; (8001750 <MRCC_vEnablePeriphClock+0x114>)
 80016fe:	681b      	ldr	r3, [r3, #0]
 8001700:	79ba      	ldrb	r2, [r7, #6]
 8001702:	2101      	movs	r1, #1
 8001704:	fa01 f202 	lsl.w	r2, r1, r2
 8001708:	4611      	mov	r1, r2
 800170a:	4a11      	ldr	r2, [pc, #68]	; (8001750 <MRCC_vEnablePeriphClock+0x114>)
 800170c:	430b      	orrs	r3, r1
 800170e:	6013      	str	r3, [r2, #0]
 8001710:	e00b      	b.n	800172a <MRCC_vEnablePeriphClock+0xee>
        case MRCC_BUS_APB2LP: SET_BIT(RCC_APB2LPENR, Copy_PeriphID); break;
 8001712:	4b10      	ldr	r3, [pc, #64]	; (8001754 <MRCC_vEnablePeriphClock+0x118>)
 8001714:	681b      	ldr	r3, [r3, #0]
 8001716:	79ba      	ldrb	r2, [r7, #6]
 8001718:	2101      	movs	r1, #1
 800171a:	fa01 f202 	lsl.w	r2, r1, r2
 800171e:	4611      	mov	r1, r2
 8001720:	4a0c      	ldr	r2, [pc, #48]	; (8001754 <MRCC_vEnablePeriphClock+0x118>)
 8001722:	430b      	orrs	r3, r1
 8001724:	6013      	str	r3, [r2, #0]
 8001726:	e000      	b.n	800172a <MRCC_vEnablePeriphClock+0xee>
        default: break;
 8001728:	bf00      	nop
    }
}
 800172a:	bf00      	nop
 800172c:	370c      	adds	r7, #12
 800172e:	46bd      	mov	sp, r7
 8001730:	f85d 7b04 	ldr.w	r7, [sp], #4
 8001734:	4770      	bx	lr
 8001736:	bf00      	nop
 8001738:	40023830 	.word	0x40023830
 800173c:	40023834 	.word	0x40023834
 8001740:	40023840 	.word	0x40023840
 8001744:	40023844 	.word	0x40023844
 8001748:	40023850 	.word	0x40023850
 800174c:	40023854 	.word	0x40023854
 8001750:	40023860 	.word	0x40023860
 8001754:	40023864 	.word	0x40023864

08001758 <SysTick_Handler>:
/* Func. Name: SysTick_Handler           */
/* i/p arguments: nothing                */
/* o/p arguments: nothing                */
/* Desc. : This API is SysTick Interrupt */
/*****************************************/
void SysTick_Handler() {
 8001758:	b580      	push	{r7, lr}
 800175a:	af00      	add	r7, sp, #0
    if (Global_u8CallMode == MSTK_SINGLE_CALL_MODE) {
 800175c:	4b10      	ldr	r3, [pc, #64]	; (80017a0 <SysTick_Handler+0x48>)
 800175e:	781b      	ldrb	r3, [r3, #0]
 8001760:	2b00      	cmp	r3, #0
 8001762:	d111      	bne.n	8001788 <SysTick_Handler+0x30>
        /* Disable INT */
        CLR_BIT(STK_CTRL,MSTK_CTRL_TICKINT_BIT);
 8001764:	4b0f      	ldr	r3, [pc, #60]	; (80017a4 <SysTick_Handler+0x4c>)
 8001766:	681b      	ldr	r3, [r3, #0]
 8001768:	4a0e      	ldr	r2, [pc, #56]	; (80017a4 <SysTick_Handler+0x4c>)
 800176a:	f023 0302 	bic.w	r3, r3, #2
 800176e:	6013      	str	r3, [r2, #0]
        /* Stop the Timer */
        CLR_BIT(STK_CTRL,MSTK_CTRL_ENABLE_BIT);
 8001770:	4b0c      	ldr	r3, [pc, #48]	; (80017a4 <SysTick_Handler+0x4c>)
 8001772:	681b      	ldr	r3, [r3, #0]
 8001774:	4a0b      	ldr	r2, [pc, #44]	; (80017a4 <SysTick_Handler+0x4c>)
 8001776:	f023 0301 	bic.w	r3, r3, #1
 800177a:	6013      	str	r3, [r2, #0]
        STK_LOAD = 0;
 800177c:	4b0a      	ldr	r3, [pc, #40]	; (80017a8 <SysTick_Handler+0x50>)
 800177e:	2200      	movs	r2, #0
 8001780:	601a      	str	r2, [r3, #0]
        STK_VAL = 0;
 8001782:	4b0a      	ldr	r3, [pc, #40]	; (80017ac <SysTick_Handler+0x54>)
 8001784:	2200      	movs	r2, #0
 8001786:	601a      	str	r2, [r3, #0]
    }
    if (MSTK_CallBack != NULL) { MSTK_CallBack(); }
 8001788:	4b09      	ldr	r3, [pc, #36]	; (80017b0 <SysTick_Handler+0x58>)
 800178a:	681b      	ldr	r3, [r3, #0]
 800178c:	2b00      	cmp	r3, #0
 800178e:	d002      	beq.n	8001796 <SysTick_Handler+0x3e>
 8001790:	4b07      	ldr	r3, [pc, #28]	; (80017b0 <SysTick_Handler+0x58>)
 8001792:	681b      	ldr	r3, [r3, #0]
 8001794:	4798      	blx	r3
    /* Clear Flag */
    (void)GET_BIT(STK_CTRL,MSTK_CTRL_COUNTFLAG_BIT);
 8001796:	4b03      	ldr	r3, [pc, #12]	; (80017a4 <SysTick_Handler+0x4c>)
 8001798:	681b      	ldr	r3, [r3, #0]
}
 800179a:	bf00      	nop
 800179c:	bd80      	pop	{r7, pc}
 800179e:	bf00      	nop
 80017a0:	20000030 	.word	0x20000030
 80017a4:	e000e010 	.word	0xe000e010
 80017a8:	e000e014 	.word	0xe000e014
 80017ac:	e000e018 	.word	0xe000e018
 80017b0:	2000002c 	.word	0x2000002c
 80017b4:	00000000 	.word	0x00000000

080017b8 <MUSART_vInit>:
/* i/p arguemnts: A_ClockInitStruct: Contains the USART Clock Settings */
/* i/p arguemnts: USARTx: USART1, USART2, USART6    				   */
/* o/p arguments: nothing                              				   */
/* Desc. : This API initializes USARTx with Specifications 			   */
/***********************************************************************/
void MUSART_vInit(USART_t* USARTx, MUSART_InitTypeDef* A_InitStruct, MUSART_ClockInitTypeDef* A_ClockInitStruct) {
 80017b8:	b590      	push	{r4, r7, lr}
 80017ba:	b085      	sub	sp, #20
 80017bc:	af00      	add	r7, sp, #0
 80017be:	60f8      	str	r0, [r7, #12]
 80017c0:	60b9      	str	r1, [r7, #8]
 80017c2:	607a      	str	r2, [r7, #4]
	/* Set The Baudrate */
	switch (A_InitStruct->Oversampling)
 80017c4:	68bb      	ldr	r3, [r7, #8]
 80017c6:	7a9b      	ldrb	r3, [r3, #10]
 80017c8:	2b00      	cmp	r3, #0
 80017ca:	d002      	beq.n	80017d2 <MUSART_vInit+0x1a>
 80017cc:	2b01      	cmp	r3, #1
 80017ce:	d072      	beq.n	80018b6 <MUSART_vInit+0xfe>
 80017d0:	e0e1      	b.n	8001996 <MUSART_vInit+0x1de>
	{
		case MUSART_OVER_SAMPLING_16: USARTx->BRR = MUSART_BRR_SAMPLING16(__MUSART_PCLK__, A_InitStruct->BaudRate); break;
 80017d2:	68bb      	ldr	r3, [r7, #8]
 80017d4:	681b      	ldr	r3, [r3, #0]
 80017d6:	4618      	mov	r0, r3
 80017d8:	f7fe fe40 	bl	800045c <__aeabi_ui2d>
 80017dc:	f04f 0200 	mov.w	r2, #0
 80017e0:	4b8f      	ldr	r3, [pc, #572]	; (8001a20 <MUSART_vInit+0x268>)
 80017e2:	f7fe feb5 	bl	8000550 <__aeabi_dmul>
 80017e6:	4602      	mov	r2, r0
 80017e8:	460b      	mov	r3, r1
 80017ea:	a18b      	add	r1, pc, #556	; (adr r1, 8001a18 <MUSART_vInit+0x260>)
 80017ec:	e9d1 0100 	ldrd	r0, r1, [r1]
 80017f0:	f7fe ffd8 	bl	80007a4 <__aeabi_ddiv>
 80017f4:	4602      	mov	r2, r0
 80017f6:	460b      	mov	r3, r1
 80017f8:	4610      	mov	r0, r2
 80017fa:	4619      	mov	r1, r3
 80017fc:	f7ff f8ba 	bl	8000974 <__aeabi_d2uiz>
 8001800:	4603      	mov	r3, r0
 8001802:	4a88      	ldr	r2, [pc, #544]	; (8001a24 <MUSART_vInit+0x26c>)
 8001804:	fba2 2303 	umull	r2, r3, r2, r3
 8001808:	095b      	lsrs	r3, r3, #5
 800180a:	011c      	lsls	r4, r3, #4
 800180c:	68bb      	ldr	r3, [r7, #8]
 800180e:	681b      	ldr	r3, [r3, #0]
 8001810:	4618      	mov	r0, r3
 8001812:	f7fe fe23 	bl	800045c <__aeabi_ui2d>
 8001816:	f04f 0200 	mov.w	r2, #0
 800181a:	4b81      	ldr	r3, [pc, #516]	; (8001a20 <MUSART_vInit+0x268>)
 800181c:	f7fe fe98 	bl	8000550 <__aeabi_dmul>
 8001820:	4602      	mov	r2, r0
 8001822:	460b      	mov	r3, r1
 8001824:	a17c      	add	r1, pc, #496	; (adr r1, 8001a18 <MUSART_vInit+0x260>)
 8001826:	e9d1 0100 	ldrd	r0, r1, [r1]
 800182a:	f7fe ffbb 	bl	80007a4 <__aeabi_ddiv>
 800182e:	4602      	mov	r2, r0
 8001830:	460b      	mov	r3, r1
 8001832:	4610      	mov	r0, r2
 8001834:	4619      	mov	r1, r3
 8001836:	f7ff f89d 	bl	8000974 <__aeabi_d2uiz>
 800183a:	4602      	mov	r2, r0
 800183c:	4b79      	ldr	r3, [pc, #484]	; (8001a24 <MUSART_vInit+0x26c>)
 800183e:	fba3 1302 	umull	r1, r3, r3, r2
 8001842:	095b      	lsrs	r3, r3, #5
 8001844:	2164      	movs	r1, #100	; 0x64
 8001846:	fb01 f303 	mul.w	r3, r1, r3
 800184a:	1ad3      	subs	r3, r2, r3
 800184c:	011b      	lsls	r3, r3, #4
 800184e:	3332      	adds	r3, #50	; 0x32
 8001850:	4a74      	ldr	r2, [pc, #464]	; (8001a24 <MUSART_vInit+0x26c>)
 8001852:	fba2 2303 	umull	r2, r3, r2, r3
 8001856:	095b      	lsrs	r3, r3, #5
 8001858:	f003 03f0 	and.w	r3, r3, #240	; 0xf0
 800185c:	441c      	add	r4, r3
 800185e:	68bb      	ldr	r3, [r7, #8]
 8001860:	681b      	ldr	r3, [r3, #0]
 8001862:	4618      	mov	r0, r3
 8001864:	f7fe fdfa 	bl	800045c <__aeabi_ui2d>
 8001868:	f04f 0200 	mov.w	r2, #0
 800186c:	4b6c      	ldr	r3, [pc, #432]	; (8001a20 <MUSART_vInit+0x268>)
 800186e:	f7fe fe6f 	bl	8000550 <__aeabi_dmul>
 8001872:	4602      	mov	r2, r0
 8001874:	460b      	mov	r3, r1
 8001876:	a168      	add	r1, pc, #416	; (adr r1, 8001a18 <MUSART_vInit+0x260>)
 8001878:	e9d1 0100 	ldrd	r0, r1, [r1]
 800187c:	f7fe ff92 	bl	80007a4 <__aeabi_ddiv>
 8001880:	4602      	mov	r2, r0
 8001882:	460b      	mov	r3, r1
 8001884:	4610      	mov	r0, r2
 8001886:	4619      	mov	r1, r3
 8001888:	f7ff f874 	bl	8000974 <__aeabi_d2uiz>
 800188c:	4602      	mov	r2, r0
 800188e:	4b65      	ldr	r3, [pc, #404]	; (8001a24 <MUSART_vInit+0x26c>)
 8001890:	fba3 1302 	umull	r1, r3, r3, r2
 8001894:	095b      	lsrs	r3, r3, #5
 8001896:	2164      	movs	r1, #100	; 0x64
 8001898:	fb01 f303 	mul.w	r3, r1, r3
 800189c:	1ad3      	subs	r3, r2, r3
 800189e:	011b      	lsls	r3, r3, #4
 80018a0:	3332      	adds	r3, #50	; 0x32
 80018a2:	4a60      	ldr	r2, [pc, #384]	; (8001a24 <MUSART_vInit+0x26c>)
 80018a4:	fba2 2303 	umull	r2, r3, r2, r3
 80018a8:	095b      	lsrs	r3, r3, #5
 80018aa:	f003 030f 	and.w	r3, r3, #15
 80018ae:	18e2      	adds	r2, r4, r3
 80018b0:	68fb      	ldr	r3, [r7, #12]
 80018b2:	609a      	str	r2, [r3, #8]
 80018b4:	e06f      	b.n	8001996 <MUSART_vInit+0x1de>
		case MUSART_OVER_SAMPLING_8:  USARTx->BRR = MUSART_BRR_SAMPLING8(__MUSART_PCLK__, A_InitStruct->BaudRate);  break;
 80018b6:	68bb      	ldr	r3, [r7, #8]
 80018b8:	681b      	ldr	r3, [r3, #0]
 80018ba:	4618      	mov	r0, r3
 80018bc:	f7fe fdce 	bl	800045c <__aeabi_ui2d>
 80018c0:	4602      	mov	r2, r0
 80018c2:	460b      	mov	r3, r1
 80018c4:	f7fe fc8e 	bl	80001e4 <__adddf3>
 80018c8:	4602      	mov	r2, r0
 80018ca:	460b      	mov	r3, r1
 80018cc:	a152      	add	r1, pc, #328	; (adr r1, 8001a18 <MUSART_vInit+0x260>)
 80018ce:	e9d1 0100 	ldrd	r0, r1, [r1]
 80018d2:	f7fe ff67 	bl	80007a4 <__aeabi_ddiv>
 80018d6:	4602      	mov	r2, r0
 80018d8:	460b      	mov	r3, r1
 80018da:	4610      	mov	r0, r2
 80018dc:	4619      	mov	r1, r3
 80018de:	f7ff f849 	bl	8000974 <__aeabi_d2uiz>
 80018e2:	4603      	mov	r3, r0
 80018e4:	4a4f      	ldr	r2, [pc, #316]	; (8001a24 <MUSART_vInit+0x26c>)
 80018e6:	fba2 2303 	umull	r2, r3, r2, r3
 80018ea:	095b      	lsrs	r3, r3, #5
 80018ec:	011c      	lsls	r4, r3, #4
 80018ee:	68bb      	ldr	r3, [r7, #8]
 80018f0:	681b      	ldr	r3, [r3, #0]
 80018f2:	4618      	mov	r0, r3
 80018f4:	f7fe fdb2 	bl	800045c <__aeabi_ui2d>
 80018f8:	4602      	mov	r2, r0
 80018fa:	460b      	mov	r3, r1
 80018fc:	f7fe fc72 	bl	80001e4 <__adddf3>
 8001900:	4602      	mov	r2, r0
 8001902:	460b      	mov	r3, r1
 8001904:	a144      	add	r1, pc, #272	; (adr r1, 8001a18 <MUSART_vInit+0x260>)
 8001906:	e9d1 0100 	ldrd	r0, r1, [r1]
 800190a:	f7fe ff4b 	bl	80007a4 <__aeabi_ddiv>
 800190e:	4602      	mov	r2, r0
 8001910:	460b      	mov	r3, r1
 8001912:	4610      	mov	r0, r2
 8001914:	4619      	mov	r1, r3
 8001916:	f7ff f82d 	bl	8000974 <__aeabi_d2uiz>
 800191a:	4602      	mov	r2, r0
 800191c:	4b41      	ldr	r3, [pc, #260]	; (8001a24 <MUSART_vInit+0x26c>)
 800191e:	fba3 1302 	umull	r1, r3, r3, r2
 8001922:	095b      	lsrs	r3, r3, #5
 8001924:	2164      	movs	r1, #100	; 0x64
 8001926:	fb01 f303 	mul.w	r3, r1, r3
 800192a:	1ad3      	subs	r3, r2, r3
 800192c:	00db      	lsls	r3, r3, #3
 800192e:	3332      	adds	r3, #50	; 0x32
 8001930:	4a3c      	ldr	r2, [pc, #240]	; (8001a24 <MUSART_vInit+0x26c>)
 8001932:	fba2 2303 	umull	r2, r3, r2, r3
 8001936:	095b      	lsrs	r3, r3, #5
 8001938:	005b      	lsls	r3, r3, #1
 800193a:	f403 73f8 	and.w	r3, r3, #496	; 0x1f0
 800193e:	441c      	add	r4, r3
 8001940:	68bb      	ldr	r3, [r7, #8]
 8001942:	681b      	ldr	r3, [r3, #0]
 8001944:	4618      	mov	r0, r3
 8001946:	f7fe fd89 	bl	800045c <__aeabi_ui2d>
 800194a:	4602      	mov	r2, r0
 800194c:	460b      	mov	r3, r1
 800194e:	f7fe fc49 	bl	80001e4 <__adddf3>
 8001952:	4602      	mov	r2, r0
 8001954:	460b      	mov	r3, r1
 8001956:	a130      	add	r1, pc, #192	; (adr r1, 8001a18 <MUSART_vInit+0x260>)
 8001958:	e9d1 0100 	ldrd	r0, r1, [r1]
 800195c:	f7fe ff22 	bl	80007a4 <__aeabi_ddiv>
 8001960:	4602      	mov	r2, r0
 8001962:	460b      	mov	r3, r1
 8001964:	4610      	mov	r0, r2
 8001966:	4619      	mov	r1, r3
 8001968:	f7ff f804 	bl	8000974 <__aeabi_d2uiz>
 800196c:	4602      	mov	r2, r0
 800196e:	4b2d      	ldr	r3, [pc, #180]	; (8001a24 <MUSART_vInit+0x26c>)
 8001970:	fba3 1302 	umull	r1, r3, r3, r2
 8001974:	095b      	lsrs	r3, r3, #5
 8001976:	2164      	movs	r1, #100	; 0x64
 8001978:	fb01 f303 	mul.w	r3, r1, r3
 800197c:	1ad3      	subs	r3, r2, r3
 800197e:	00db      	lsls	r3, r3, #3
 8001980:	3332      	adds	r3, #50	; 0x32
 8001982:	4a28      	ldr	r2, [pc, #160]	; (8001a24 <MUSART_vInit+0x26c>)
 8001984:	fba2 2303 	umull	r2, r3, r2, r3
 8001988:	095b      	lsrs	r3, r3, #5
 800198a:	f003 0307 	and.w	r3, r3, #7
 800198e:	18e2      	adds	r2, r4, r3
 8001990:	68fb      	ldr	r3, [r7, #12]
 8001992:	609a      	str	r2, [r3, #8]
 8001994:	bf00      	nop
	}
	/* Set The Control Register */
	USARTx->CR1 = (A_InitStruct->Oversampling << MUSART_CR1_OVER8_BIT)     |
 8001996:	68bb      	ldr	r3, [r7, #8]
 8001998:	7a9b      	ldrb	r3, [r3, #10]
 800199a:	03da      	lsls	r2, r3, #15
			      (A_InitStruct->HardwareFlowControl << MUSART_CR1_UE_BIT) |
 800199c:	68bb      	ldr	r3, [r7, #8]
 800199e:	7a5b      	ldrb	r3, [r3, #9]
 80019a0:	035b      	lsls	r3, r3, #13
	USARTx->CR1 = (A_InitStruct->Oversampling << MUSART_CR1_OVER8_BIT)     |
 80019a2:	431a      	orrs	r2, r3
				  (A_InitStruct->DataWidth << MUSART_CR1_M_BIT)            |
 80019a4:	68bb      	ldr	r3, [r7, #8]
 80019a6:	791b      	ldrb	r3, [r3, #4]
 80019a8:	031b      	lsls	r3, r3, #12
			      (A_InitStruct->HardwareFlowControl << MUSART_CR1_UE_BIT) |
 80019aa:	431a      	orrs	r2, r3
				  (A_InitStruct->Parity_Enable << MUSART_CR1_PCE_BIT)      |
 80019ac:	68bb      	ldr	r3, [r7, #8]
 80019ae:	799b      	ldrb	r3, [r3, #6]
 80019b0:	029b      	lsls	r3, r3, #10
				  (A_InitStruct->DataWidth << MUSART_CR1_M_BIT)            |
 80019b2:	431a      	orrs	r2, r3
				  (A_InitStruct->Parity_Selection << MUSART_CR1_PS_BIT)    ;
 80019b4:	68bb      	ldr	r3, [r7, #8]
 80019b6:	79db      	ldrb	r3, [r3, #7]
 80019b8:	025b      	lsls	r3, r3, #9
				  (A_InitStruct->Parity_Enable << MUSART_CR1_PCE_BIT)      |
 80019ba:	4313      	orrs	r3, r2
 80019bc:	461a      	mov	r2, r3
	USARTx->CR1 = (A_InitStruct->Oversampling << MUSART_CR1_OVER8_BIT)     |
 80019be:	68fb      	ldr	r3, [r7, #12]
 80019c0:	60da      	str	r2, [r3, #12]
	/* Set The Direction of Transferring Data */
	WRITE_BITS(USARTx->CR1, A_InitStruct->TransferDirection, TWO_BITS, MUSART_CR1_RE_BIT);
 80019c2:	68bb      	ldr	r3, [r7, #8]
 80019c4:	7a1b      	ldrb	r3, [r3, #8]
 80019c6:	009b      	lsls	r3, r3, #2
 80019c8:	461a      	mov	r2, r3
 80019ca:	68fb      	ldr	r3, [r7, #12]
 80019cc:	68db      	ldr	r3, [r3, #12]
 80019ce:	f023 030c 	bic.w	r3, r3, #12
 80019d2:	431a      	orrs	r2, r3
 80019d4:	68fb      	ldr	r3, [r7, #12]
 80019d6:	60da      	str	r2, [r3, #12]
	/* Set The Second Control Register */
	USARTx->CR2 =   (A_InitStruct->StopBits << MUSART_CR2_STOP_BIT)				   |
 80019d8:	68bb      	ldr	r3, [r7, #8]
 80019da:	795b      	ldrb	r3, [r3, #5]
 80019dc:	031a      	lsls	r2, r3, #12
					(A_ClockInitStruct->ClockOutput << MUSART_CR2_CLKEN_BIT)       |
 80019de:	687b      	ldr	r3, [r7, #4]
 80019e0:	781b      	ldrb	r3, [r3, #0]
 80019e2:	02db      	lsls	r3, r3, #11
	USARTx->CR2 =   (A_InitStruct->StopBits << MUSART_CR2_STOP_BIT)				   |
 80019e4:	431a      	orrs	r2, r3
					(A_ClockInitStruct->ClockPhase << MUSART_CR2_CPHA_BIT)         |
 80019e6:	687b      	ldr	r3, [r7, #4]
 80019e8:	789b      	ldrb	r3, [r3, #2]
 80019ea:	025b      	lsls	r3, r3, #9
					(A_ClockInitStruct->ClockOutput << MUSART_CR2_CLKEN_BIT)       |
 80019ec:	431a      	orrs	r2, r3
					(A_ClockInitStruct->ClockPolarity << MUSART_CR2_CPOL_BIT)      |
 80019ee:	687b      	ldr	r3, [r7, #4]
 80019f0:	785b      	ldrb	r3, [r3, #1]
 80019f2:	029b      	lsls	r3, r3, #10
					(A_ClockInitStruct->ClockPhase << MUSART_CR2_CPHA_BIT)         |
 80019f4:	431a      	orrs	r2, r3
					(A_ClockInitStruct->LastBitClockPulse << MUSART_CR2_LBCL_BIT)  ;
 80019f6:	687b      	ldr	r3, [r7, #4]
 80019f8:	78db      	ldrb	r3, [r3, #3]
 80019fa:	021b      	lsls	r3, r3, #8
					(A_ClockInitStruct->ClockPolarity << MUSART_CR2_CPOL_BIT)      |
 80019fc:	4313      	orrs	r3, r2
 80019fe:	461a      	mov	r2, r3
	USARTx->CR2 =   (A_InitStruct->StopBits << MUSART_CR2_STOP_BIT)				   |
 8001a00:	68fb      	ldr	r3, [r7, #12]
 8001a02:	611a      	str	r2, [r3, #16]
	/* Clear The Status Register */
	USARTx->SR = 0;
 8001a04:	68fb      	ldr	r3, [r7, #12]
 8001a06:	2200      	movs	r2, #0
 8001a08:	601a      	str	r2, [r3, #0]
}
 8001a0a:	bf00      	nop
 8001a0c:	3714      	adds	r7, #20
 8001a0e:	46bd      	mov	sp, r7
 8001a10:	bd90      	pop	{r4, r7, pc}
 8001a12:	bf00      	nop
 8001a14:	f3af 8000 	nop.w
 8001a18:	00000000 	.word	0x00000000
 8001a1c:	41a7d784 	.word	0x41a7d784
 8001a20:	40100000 	.word	0x40100000
 8001a24:	51eb851f 	.word	0x51eb851f

08001a28 <MUSART_vEnable>:
/* i/p arguemnts: USARTx: USART1, USART2, USART6 */
/* o/p arguments: nothing                        */
/* Desc. : This API Enables USARTx  			 */
/*************************************************/
void MUSART_vEnable(USART_t* USARTx)
{ SET_BIT(USARTx->CR1,MUSART_CR1_UE_BIT); }
 8001a28:	b480      	push	{r7}
 8001a2a:	b083      	sub	sp, #12
 8001a2c:	af00      	add	r7, sp, #0
 8001a2e:	6078      	str	r0, [r7, #4]
 8001a30:	687b      	ldr	r3, [r7, #4]
 8001a32:	68db      	ldr	r3, [r3, #12]
 8001a34:	f443 5200 	orr.w	r2, r3, #8192	; 0x2000
 8001a38:	687b      	ldr	r3, [r7, #4]
 8001a3a:	60da      	str	r2, [r3, #12]
 8001a3c:	bf00      	nop
 8001a3e:	370c      	adds	r7, #12
 8001a40:	46bd      	mov	sp, r7
 8001a42:	f85d 7b04 	ldr.w	r7, [sp], #4
 8001a46:	4770      	bx	lr

08001a48 <MUSART_u32EnableRxDMA>:
/* Func. Name: MUSART_u32EnableRxDMA                  */
/* i/p arguemnts: USARTx: USART1, USART2, USART6      */
/* o/p arguments: nothing                             */
/* Desc. : This API Enables USARTx Receiving with DMA */
/******************************************************/
volatile u32* MUSART_u32EnableRxDMA(USART_t* USARTx) {
 8001a48:	b480      	push	{r7}
 8001a4a:	b083      	sub	sp, #12
 8001a4c:	af00      	add	r7, sp, #0
 8001a4e:	6078      	str	r0, [r7, #4]
	SET_BIT(USARTx->CR3, MUSART_CR3_DMAR_BIT);
 8001a50:	687b      	ldr	r3, [r7, #4]
 8001a52:	695b      	ldr	r3, [r3, #20]
 8001a54:	f043 0240 	orr.w	r2, r3, #64	; 0x40
 8001a58:	687b      	ldr	r3, [r7, #4]
 8001a5a:	615a      	str	r2, [r3, #20]
	return &(USARTx->DR);
 8001a5c:	687b      	ldr	r3, [r7, #4]
 8001a5e:	3304      	adds	r3, #4
}
 8001a60:	4618      	mov	r0, r3
 8001a62:	370c      	adds	r7, #12
 8001a64:	46bd      	mov	sp, r7
 8001a66:	f85d 7b04 	ldr.w	r7, [sp], #4
 8001a6a:	4770      	bx	lr

08001a6c <MUSART_vRxIntStatus>:
/* i/p arguments: USARTx: USART1, USART2, USART6 	 */
/* i/p arguments: Copy_u8Status: ENABLE, DISABLE 	 */
/* o/p arguments: nothing                        	 */
/* Desc. : This API Set the interrupt flag of USARTx */
/*****************************************************/
void MUSART_vRxIntStatus(USART_t* USARTx, u8 Copy_u8Status) {
 8001a6c:	b480      	push	{r7}
 8001a6e:	b083      	sub	sp, #12
 8001a70:	af00      	add	r7, sp, #0
 8001a72:	6078      	str	r0, [r7, #4]
 8001a74:	460b      	mov	r3, r1
 8001a76:	70fb      	strb	r3, [r7, #3]
	switch (Copy_u8Status)
 8001a78:	78fb      	ldrb	r3, [r7, #3]
 8001a7a:	2b00      	cmp	r3, #0
 8001a7c:	d008      	beq.n	8001a90 <MUSART_vRxIntStatus+0x24>
 8001a7e:	2b01      	cmp	r3, #1
 8001a80:	d10d      	bne.n	8001a9e <MUSART_vRxIntStatus+0x32>
	{
		case MUSART_ENABLE:  SET_BIT(USARTx->CR1,MUSART_CR1_RXNEIE_BIT); break;
 8001a82:	687b      	ldr	r3, [r7, #4]
 8001a84:	68db      	ldr	r3, [r3, #12]
 8001a86:	f043 0220 	orr.w	r2, r3, #32
 8001a8a:	687b      	ldr	r3, [r7, #4]
 8001a8c:	60da      	str	r2, [r3, #12]
 8001a8e:	e007      	b.n	8001aa0 <MUSART_vRxIntStatus+0x34>
		case MUSART_DISABLE: CLR_BIT(USARTx->CR1,MUSART_CR1_RXNEIE_BIT); break;
 8001a90:	687b      	ldr	r3, [r7, #4]
 8001a92:	68db      	ldr	r3, [r3, #12]
 8001a94:	f023 0220 	bic.w	r2, r3, #32
 8001a98:	687b      	ldr	r3, [r7, #4]
 8001a9a:	60da      	str	r2, [r3, #12]
 8001a9c:	e000      	b.n	8001aa0 <MUSART_vRxIntStatus+0x34>
		default: break;
 8001a9e:	bf00      	nop
	}
}
 8001aa0:	bf00      	nop
 8001aa2:	370c      	adds	r7, #12
 8001aa4:	46bd      	mov	sp, r7
 8001aa6:	f85d 7b04 	ldr.w	r7, [sp], #4
 8001aaa:	4770      	bx	lr

08001aac <USART1_IRQHandler>:
{ MUSART2_CallBack = ptr; }
void MUSART6_vSetCallBack(void (*ptr)(void))
{ MUSART6_CallBack = ptr; }


void USART1_IRQHandler(void) {
 8001aac:	b580      	push	{r7, lr}
 8001aae:	af00      	add	r7, sp, #0
	USART1->SR = 0;
 8001ab0:	4b03      	ldr	r3, [pc, #12]	; (8001ac0 <USART1_IRQHandler+0x14>)
 8001ab2:	2200      	movs	r2, #0
 8001ab4:	601a      	str	r2, [r3, #0]
	MUSART1_CallBack();
 8001ab6:	4b03      	ldr	r3, [pc, #12]	; (8001ac4 <USART1_IRQHandler+0x18>)
 8001ab8:	681b      	ldr	r3, [r3, #0]
 8001aba:	4798      	blx	r3
}
 8001abc:	bf00      	nop
 8001abe:	bd80      	pop	{r7, pc}
 8001ac0:	40011000 	.word	0x40011000
 8001ac4:	20000034 	.word	0x20000034

08001ac8 <USART2_IRQHandler>:

void USART2_IRQHandler(void) {
 8001ac8:	b580      	push	{r7, lr}
 8001aca:	af00      	add	r7, sp, #0
	USART2->SR = 0;
 8001acc:	4b03      	ldr	r3, [pc, #12]	; (8001adc <USART2_IRQHandler+0x14>)
 8001ace:	2200      	movs	r2, #0
 8001ad0:	601a      	str	r2, [r3, #0]
	MUSART2_CallBack();
 8001ad2:	4b03      	ldr	r3, [pc, #12]	; (8001ae0 <USART2_IRQHandler+0x18>)
 8001ad4:	681b      	ldr	r3, [r3, #0]
 8001ad6:	4798      	blx	r3
}
 8001ad8:	bf00      	nop
 8001ada:	bd80      	pop	{r7, pc}
 8001adc:	40004400 	.word	0x40004400
 8001ae0:	20000038 	.word	0x20000038

08001ae4 <USART6_IRQHandler>:

void USART6_IRQHandler(void) {
 8001ae4:	b580      	push	{r7, lr}
 8001ae6:	af00      	add	r7, sp, #0
	USART6->SR = 0;
 8001ae8:	4b03      	ldr	r3, [pc, #12]	; (8001af8 <USART6_IRQHandler+0x14>)
 8001aea:	2200      	movs	r2, #0
 8001aec:	601a      	str	r2, [r3, #0]
	MUSART6_CallBack();
 8001aee:	4b03      	ldr	r3, [pc, #12]	; (8001afc <USART6_IRQHandler+0x18>)
 8001af0:	681b      	ldr	r3, [r3, #0]
 8001af2:	4798      	blx	r3
}
 8001af4:	bf00      	nop
 8001af6:	bd80      	pop	{r7, pc}
 8001af8:	40011400 	.word	0x40011400
 8001afc:	2000003c 	.word	0x2000003c

08001b00 <main>:
void APP_vLineFollow(void);                 /* LINE FOLLOWING ALGORITHM                   */
void APP_vMazeSolveMobile(void);            /* MAZE SOLVE USING MOBILE APPLICATION        */
void APP_vMazeSolveRobot(void);             /* MAZE SOLVE USING ROBOT ALGORITHM           */
/**********************************************************************************************/

int main(void) {
 8001b00:	b580      	push	{r7, lr}
 8001b02:	b082      	sub	sp, #8
 8001b04:	af00      	add	r7, sp, #0

	/*************************************** INITIALIZATION ***************************************/
	APP_vInit();
 8001b06:	f000 f847 	bl	8001b98 <APP_vInit>
	/**********************************************************************************************/


	/********************************** CHOOSE WHICH CODE TO RUN **********************************/
	APP_ALGORITHM AlgorithmFlag = 0;
 8001b0a:	2300      	movs	r3, #0
 8001b0c:	71fb      	strb	r3, [r7, #7]
	while (true) {
		if (!MGPIO_u8GetPinValue(APP_BUTTON_CALIBRATE_ROBOT)) {
 8001b0e:	2105      	movs	r1, #5
 8001b10:	4820      	ldr	r0, [pc, #128]	; (8001b94 <main+0x94>)
 8001b12:	f7ff fba8 	bl	8001266 <MGPIO_u8GetPinValue>
 8001b16:	4603      	mov	r3, r0
 8001b18:	2b00      	cmp	r3, #0
 8001b1a:	d102      	bne.n	8001b22 <main+0x22>
			AlgorithmFlag = __APP_CALIBRATE_ROBOT__;
 8001b1c:	2300      	movs	r3, #0
 8001b1e:	71fb      	strb	r3, [r7, #7]
			break;
 8001b20:	e01c      	b.n	8001b5c <main+0x5c>
		}
		if (!MGPIO_u8GetPinValue(APP_BUTTON_LINE_FOLLOW)) {
 8001b22:	2106      	movs	r1, #6
 8001b24:	481b      	ldr	r0, [pc, #108]	; (8001b94 <main+0x94>)
 8001b26:	f7ff fb9e 	bl	8001266 <MGPIO_u8GetPinValue>
 8001b2a:	4603      	mov	r3, r0
 8001b2c:	2b00      	cmp	r3, #0
 8001b2e:	d102      	bne.n	8001b36 <main+0x36>
			AlgorithmFlag = __APP_LINE_FOLLOWING__;
 8001b30:	2301      	movs	r3, #1
 8001b32:	71fb      	strb	r3, [r7, #7]
			break;
 8001b34:	e012      	b.n	8001b5c <main+0x5c>
		}
		if (!MGPIO_u8GetPinValue(APP_BUTTON_MAZE_SOLVE_ROBOT)) {
 8001b36:	2107      	movs	r1, #7
 8001b38:	4816      	ldr	r0, [pc, #88]	; (8001b94 <main+0x94>)
 8001b3a:	f7ff fb94 	bl	8001266 <MGPIO_u8GetPinValue>
 8001b3e:	4603      	mov	r3, r0
 8001b40:	2b00      	cmp	r3, #0
 8001b42:	d102      	bne.n	8001b4a <main+0x4a>
			AlgorithmFlag = __APP_MAZE_SOLVING_ROBOT__;
 8001b44:	2303      	movs	r3, #3
 8001b46:	71fb      	strb	r3, [r7, #7]
			break;
 8001b48:	e008      	b.n	8001b5c <main+0x5c>
		}
		if (!MGPIO_u8GetPinValue(APP_BUTTON_MAZE_SOLVE_MOBILE)) {
 8001b4a:	2108      	movs	r1, #8
 8001b4c:	4811      	ldr	r0, [pc, #68]	; (8001b94 <main+0x94>)
 8001b4e:	f7ff fb8a 	bl	8001266 <MGPIO_u8GetPinValue>
 8001b52:	4603      	mov	r3, r0
 8001b54:	2b00      	cmp	r3, #0
 8001b56:	d1da      	bne.n	8001b0e <main+0xe>
			AlgorithmFlag = __APP_MAZE_SOLVING_MOBILE__;
 8001b58:	2302      	movs	r3, #2
 8001b5a:	71fb      	strb	r3, [r7, #7]


	while (true) {

		/***************************** MAZE SOLVING USING MOBILE ALGORITHM ****************************/
		if (AlgorithmFlag == __APP_CALIBRATE_ROBOT__) {
 8001b5c:	79fb      	ldrb	r3, [r7, #7]
 8001b5e:	2b00      	cmp	r3, #0
 8001b60:	d102      	bne.n	8001b68 <main+0x68>
			/* CALIBRATION OF LINE FOLLOWING */
			APP_vCalibrateLineFollowing();
 8001b62:	f000 fa23 	bl	8001fac <APP_vCalibrateLineFollowing>
 8001b66:	e7f9      	b.n	8001b5c <main+0x5c>
		}
		/**********************************************************************************************/


		/********************************** LINE FOLLOWING ALGORITHM **********************************/
		else if (AlgorithmFlag == __APP_LINE_FOLLOWING__) {
 8001b68:	79fb      	ldrb	r3, [r7, #7]
 8001b6a:	2b01      	cmp	r3, #1
 8001b6c:	d106      	bne.n	8001b7c <main+0x7c>
			/* CALIBRATION OF LINE FOLLOWING */
			APP_vCalibrateLineFollowing();
 8001b6e:	f000 fa1d 	bl	8001fac <APP_vCalibrateLineFollowing>
			/* RETURN TO POINT ZERO */
			APP_vReturnToPointZero();
 8001b72:	f000 fab9 	bl	80020e8 <APP_vReturnToPointZero>
			/* IMPLEMENT ALGORITHM */
			APP_vLineFollow();
 8001b76:	f000 fb9d 	bl	80022b4 <APP_vLineFollow>
 8001b7a:	e7ef      	b.n	8001b5c <main+0x5c>
		}
		/**********************************************************************************************/


		/***************************** MAZE SOLVING USING MOBILE ALGORITHM ****************************/
		else if (AlgorithmFlag == __APP_MAZE_SOLVING_MOBILE__) {
 8001b7c:	79fb      	ldrb	r3, [r7, #7]
 8001b7e:	2b02      	cmp	r3, #2
 8001b80:	d102      	bne.n	8001b88 <main+0x88>
			/* IMPLEMENT ALGORITHM */
			APP_vMazeSolveMobile();
 8001b82:	f000 fbd9 	bl	8002338 <APP_vMazeSolveMobile>
 8001b86:	e7e9      	b.n	8001b5c <main+0x5c>
		}
		/**********************************************************************************************/


		/***************************** MAZE SOLVING USING ROBOT ALGORITHM *****************************/
		else if (AlgorithmFlag == __APP_MAZE_SOLVING_ROBOT__) {
 8001b88:	79fb      	ldrb	r3, [r7, #7]
 8001b8a:	2b03      	cmp	r3, #3
 8001b8c:	d1e6      	bne.n	8001b5c <main+0x5c>
			/* IMPLEMENT ALGORITHM */
			APP_vMazeSolveRobot();
 8001b8e:	f000 fc3f 	bl	8002410 <APP_vMazeSolveRobot>
		if (AlgorithmFlag == __APP_CALIBRATE_ROBOT__) {
 8001b92:	e7e3      	b.n	8001b5c <main+0x5c>
 8001b94:	40020000 	.word	0x40020000

08001b98 <APP_vInit>:
 * initializes ADC, DMA, and PWM for car control.
 *
 * @param None
 * @return None
 */
void APP_vInit(void) {
 8001b98:	b590      	push	{r4, r7, lr}
 8001b9a:	b08f      	sub	sp, #60	; 0x3c
 8001b9c:	af00      	add	r7, sp, #0
	/********************* CLOCK CONFIGURATIONS AND BUSSES/PERIPHERALS ENABLE *********************/
	/* INIT CLOCK AND BUSSES CLOCK */
	MRCC_vInitSysAndBusClock();
 8001b9e:	f7ff fd13 	bl	80015c8 <MRCC_vInitSysAndBusClock>
	/* INIT ALL NEEDED PERIPHERALS CLOCK */
	MRCC_vEnablePeriphClock(MRCC_BUS_AHB1, MRCC_AHB1_GPIOAEN);
 8001ba2:	2100      	movs	r1, #0
 8001ba4:	2000      	movs	r0, #0
 8001ba6:	f7ff fd49 	bl	800163c <MRCC_vEnablePeriphClock>
	MRCC_vEnablePeriphClock(MRCC_BUS_AHB1, MRCC_AHB1_GPIOBEN);
 8001baa:	2101      	movs	r1, #1
 8001bac:	2000      	movs	r0, #0
 8001bae:	f7ff fd45 	bl	800163c <MRCC_vEnablePeriphClock>
	MRCC_vEnablePeriphClock(MRCC_BUS_APB2, MRCC_APB2_ADC1EN);
 8001bb2:	2108      	movs	r1, #8
 8001bb4:	2003      	movs	r0, #3
 8001bb6:	f7ff fd41 	bl	800163c <MRCC_vEnablePeriphClock>
	MRCC_vEnablePeriphClock(MRCC_BUS_AHB1, MRCC_AHB1_DMA2EN);
 8001bba:	2116      	movs	r1, #22
 8001bbc:	2000      	movs	r0, #0
 8001bbe:	f7ff fd3d 	bl	800163c <MRCC_vEnablePeriphClock>
	MRCC_vEnablePeriphClock(MRCC_BUS_APB2, MRCC_APB2_USART1EN);
 8001bc2:	2104      	movs	r1, #4
 8001bc4:	2003      	movs	r0, #3
 8001bc6:	f7ff fd39 	bl	800163c <MRCC_vEnablePeriphClock>
	MRCC_vEnablePeriphClock(MRCC_BUS_APB1, MRCC_APB1_TIM3EN);
 8001bca:	2101      	movs	r1, #1
 8001bcc:	2002      	movs	r0, #2
 8001bce:	f7ff fd35 	bl	800163c <MRCC_vEnablePeriphClock>
	MRCC_vEnablePeriphClock(MRCC_BUS_APB1, MRCC_APB1_TIM4EN);
 8001bd2:	2102      	movs	r1, #2
 8001bd4:	2002      	movs	r0, #2
 8001bd6:	f7ff fd31 	bl	800163c <MRCC_vEnablePeriphClock>
	MRCC_vEnablePeriphClock(MRCC_BUS_AHB1,MRCC_AHB1_GPIOCEN);
 8001bda:	2102      	movs	r1, #2
 8001bdc:	2000      	movs	r0, #0
 8001bde:	f7ff fd2d 	bl	800163c <MRCC_vEnablePeriphClock>
	/* PINS INIT */
	MGPIO_vSetPinMode(GPIOC, MGPIO_PIN13, MGPIO_MODE_OUTPUT);
 8001be2:	2201      	movs	r2, #1
 8001be4:	210d      	movs	r1, #13
 8001be6:	48bb      	ldr	r0, [pc, #748]	; (8001ed4 <APP_vInit+0x33c>)
 8001be8:	f7ff fa49 	bl	800107e <MGPIO_vSetPinMode>
	MGPIO_vSetPinValue(GPIOC, MGPIO_PIN13, MGPIO_OUTPUT_HIGH);
 8001bec:	2201      	movs	r2, #1
 8001bee:	210d      	movs	r1, #13
 8001bf0:	48b8      	ldr	r0, [pc, #736]	; (8001ed4 <APP_vInit+0x33c>)
 8001bf2:	f7ff fb10 	bl	8001216 <MGPIO_vSetPinValue>
	/**********************************************************************************************/

	/********************** NESTED VECTOR INTERRUPT CONTROLLER CONFIGURATION **********************/
	MNVIC_vInit();
 8001bf6:	f7ff fcd9 	bl	80015ac <MNVIC_vInit>
	/**********************************************************************************************/

	/************************************* PINS CONFIGURATION *************************************/
	/* INIT ANALOG READ PINS */
	MGPIO_vSetPinMode(APP_IR0, MGPIO_MODE_ANALOG);
 8001bfa:	2203      	movs	r2, #3
 8001bfc:	2100      	movs	r1, #0
 8001bfe:	48b6      	ldr	r0, [pc, #728]	; (8001ed8 <APP_vInit+0x340>)
 8001c00:	f7ff fa3d 	bl	800107e <MGPIO_vSetPinMode>
	MGPIO_vSetPinMode(APP_IR1, MGPIO_MODE_ANALOG);
 8001c04:	2203      	movs	r2, #3
 8001c06:	2101      	movs	r1, #1
 8001c08:	48b3      	ldr	r0, [pc, #716]	; (8001ed8 <APP_vInit+0x340>)
 8001c0a:	f7ff fa38 	bl	800107e <MGPIO_vSetPinMode>
	MGPIO_vSetPinMode(APP_IR2, MGPIO_MODE_ANALOG);
 8001c0e:	2203      	movs	r2, #3
 8001c10:	2102      	movs	r1, #2
 8001c12:	48b1      	ldr	r0, [pc, #708]	; (8001ed8 <APP_vInit+0x340>)
 8001c14:	f7ff fa33 	bl	800107e <MGPIO_vSetPinMode>
	MGPIO_vSetPinMode(APP_IR3, MGPIO_MODE_ANALOG);
 8001c18:	2203      	movs	r2, #3
 8001c1a:	2103      	movs	r1, #3
 8001c1c:	48ae      	ldr	r0, [pc, #696]	; (8001ed8 <APP_vInit+0x340>)
 8001c1e:	f7ff fa2e 	bl	800107e <MGPIO_vSetPinMode>
	MGPIO_vSetPinMode(APP_IR4, MGPIO_MODE_ANALOG);
 8001c22:	2203      	movs	r2, #3
 8001c24:	2104      	movs	r1, #4
 8001c26:	48ac      	ldr	r0, [pc, #688]	; (8001ed8 <APP_vInit+0x340>)
 8001c28:	f7ff fa29 	bl	800107e <MGPIO_vSetPinMode>
	/* INIT USART TRANSMIT RECEIVE PINS */
	MGPIO_vSetPinMode(APP_MOBILE_USART_TX, MGPIO_MODE_ALTERNATE);
 8001c2c:	2202      	movs	r2, #2
 8001c2e:	2109      	movs	r1, #9
 8001c30:	48a9      	ldr	r0, [pc, #676]	; (8001ed8 <APP_vInit+0x340>)
 8001c32:	f7ff fa24 	bl	800107e <MGPIO_vSetPinMode>
	MGPIO_vSetPinMode(APP_MOBILE_USART_RX, MGPIO_MODE_ALTERNATE);
 8001c36:	2202      	movs	r2, #2
 8001c38:	210a      	movs	r1, #10
 8001c3a:	48a7      	ldr	r0, [pc, #668]	; (8001ed8 <APP_vInit+0x340>)
 8001c3c:	f7ff fa1f 	bl	800107e <MGPIO_vSetPinMode>
	MGPIO_vSetPinAFDirection(APP_MOBILE_USART_TX, APP_MOBILE_USART_AF);
 8001c40:	2207      	movs	r2, #7
 8001c42:	2109      	movs	r1, #9
 8001c44:	48a4      	ldr	r0, [pc, #656]	; (8001ed8 <APP_vInit+0x340>)
 8001c46:	f7ff faac 	bl	80011a2 <MGPIO_vSetPinAFDirection>
	MGPIO_vSetPinAFDirection(APP_MOBILE_USART_RX, APP_MOBILE_USART_AF);
 8001c4a:	2207      	movs	r2, #7
 8001c4c:	210a      	movs	r1, #10
 8001c4e:	48a2      	ldr	r0, [pc, #648]	; (8001ed8 <APP_vInit+0x340>)
 8001c50:	f7ff faa7 	bl	80011a2 <MGPIO_vSetPinAFDirection>
	/* INIT TIMER PWM PIN */
	MGPIO_vSetPinMode(APP_TIM_PWM_R_PIN, MGPIO_MODE_ALTERNATE);
 8001c54:	2202      	movs	r2, #2
 8001c56:	2104      	movs	r1, #4
 8001c58:	48a0      	ldr	r0, [pc, #640]	; (8001edc <APP_vInit+0x344>)
 8001c5a:	f7ff fa10 	bl	800107e <MGPIO_vSetPinMode>
	MGPIO_vSetPinAFDirection(APP_TIM_PWM_R_PIN, APP_TIM_PWM_R_AF);
 8001c5e:	2202      	movs	r2, #2
 8001c60:	2104      	movs	r1, #4
 8001c62:	489e      	ldr	r0, [pc, #632]	; (8001edc <APP_vInit+0x344>)
 8001c64:	f7ff fa9d 	bl	80011a2 <MGPIO_vSetPinAFDirection>
	MGPIO_vSetPinMode(APP_TIM_PWM_L_PIN, MGPIO_MODE_ALTERNATE);
 8001c68:	2202      	movs	r2, #2
 8001c6a:	2106      	movs	r1, #6
 8001c6c:	489b      	ldr	r0, [pc, #620]	; (8001edc <APP_vInit+0x344>)
 8001c6e:	f7ff fa06 	bl	800107e <MGPIO_vSetPinMode>
	MGPIO_vSetPinAFDirection(APP_TIM_PWM_L_PIN, APP_TIM_PWM_L_AF);
 8001c72:	2202      	movs	r2, #2
 8001c74:	2106      	movs	r1, #6
 8001c76:	4899      	ldr	r0, [pc, #612]	; (8001edc <APP_vInit+0x344>)
 8001c78:	f7ff fa93 	bl	80011a2 <MGPIO_vSetPinAFDirection>
	/* INIT BUTTON PINS */
	MGPIO_vSetPinMode(APP_BUTTON_CALIBRATE_ROBOT, MGPIO_MODE_INPUT);
 8001c7c:	2200      	movs	r2, #0
 8001c7e:	2105      	movs	r1, #5
 8001c80:	4895      	ldr	r0, [pc, #596]	; (8001ed8 <APP_vInit+0x340>)
 8001c82:	f7ff f9fc 	bl	800107e <MGPIO_vSetPinMode>
	MGPIO_vSetPinInputType(APP_BUTTON_CALIBRATE_ROBOT, MGPIO_INPUT_TYPE_PULLUP);
 8001c86:	2201      	movs	r2, #1
 8001c88:	2105      	movs	r1, #5
 8001c8a:	4893      	ldr	r0, [pc, #588]	; (8001ed8 <APP_vInit+0x340>)
 8001c8c:	f7ff fa64 	bl	8001158 <MGPIO_vSetPinInputType>
	MGPIO_vSetPinMode(APP_BUTTON_LINE_FOLLOW, MGPIO_MODE_INPUT);
 8001c90:	2200      	movs	r2, #0
 8001c92:	2106      	movs	r1, #6
 8001c94:	4890      	ldr	r0, [pc, #576]	; (8001ed8 <APP_vInit+0x340>)
 8001c96:	f7ff f9f2 	bl	800107e <MGPIO_vSetPinMode>
	MGPIO_vSetPinInputType(APP_BUTTON_LINE_FOLLOW, MGPIO_INPUT_TYPE_PULLUP);
 8001c9a:	2201      	movs	r2, #1
 8001c9c:	2106      	movs	r1, #6
 8001c9e:	488e      	ldr	r0, [pc, #568]	; (8001ed8 <APP_vInit+0x340>)
 8001ca0:	f7ff fa5a 	bl	8001158 <MGPIO_vSetPinInputType>
	MGPIO_vSetPinMode(APP_BUTTON_MAZE_SOLVE_ROBOT, MGPIO_MODE_INPUT);
 8001ca4:	2200      	movs	r2, #0
 8001ca6:	2107      	movs	r1, #7
 8001ca8:	488b      	ldr	r0, [pc, #556]	; (8001ed8 <APP_vInit+0x340>)
 8001caa:	f7ff f9e8 	bl	800107e <MGPIO_vSetPinMode>
	MGPIO_vSetPinInputType(APP_BUTTON_MAZE_SOLVE_ROBOT, MGPIO_INPUT_TYPE_PULLUP);
 8001cae:	2201      	movs	r2, #1
 8001cb0:	2107      	movs	r1, #7
 8001cb2:	4889      	ldr	r0, [pc, #548]	; (8001ed8 <APP_vInit+0x340>)
 8001cb4:	f7ff fa50 	bl	8001158 <MGPIO_vSetPinInputType>
	MGPIO_vSetPinMode(APP_BUTTON_MAZE_SOLVE_MOBILE, MGPIO_MODE_INPUT);
 8001cb8:	2200      	movs	r2, #0
 8001cba:	2108      	movs	r1, #8
 8001cbc:	4886      	ldr	r0, [pc, #536]	; (8001ed8 <APP_vInit+0x340>)
 8001cbe:	f7ff f9de 	bl	800107e <MGPIO_vSetPinMode>
	MGPIO_vSetPinInputType(APP_BUTTON_MAZE_SOLVE_MOBILE, MGPIO_INPUT_TYPE_PULLUP);
 8001cc2:	2201      	movs	r2, #1
 8001cc4:	2108      	movs	r1, #8
 8001cc6:	4884      	ldr	r0, [pc, #528]	; (8001ed8 <APP_vInit+0x340>)
 8001cc8:	f7ff fa46 	bl	8001158 <MGPIO_vSetPinInputType>
	/* INIT DIRECTION PINS */
	MGPIO_vSetPinMode(APP_RIGHT_MOTOR_PIN0, MGPIO_MODE_OUTPUT);
 8001ccc:	2201      	movs	r2, #1
 8001cce:	2100      	movs	r1, #0
 8001cd0:	4882      	ldr	r0, [pc, #520]	; (8001edc <APP_vInit+0x344>)
 8001cd2:	f7ff f9d4 	bl	800107e <MGPIO_vSetPinMode>
	MGPIO_vSetPinOutputType(APP_RIGHT_MOTOR_PIN0, MGPIO_OUTPUT_TYPE_PP);
 8001cd6:	2200      	movs	r2, #0
 8001cd8:	2100      	movs	r1, #0
 8001cda:	4880      	ldr	r0, [pc, #512]	; (8001edc <APP_vInit+0x344>)
 8001cdc:	f7ff f9f4 	bl	80010c8 <MGPIO_vSetPinOutputType>
	MGPIO_vSetPinOutputSpeed(APP_RIGHT_MOTOR_PIN0, MGPIO_HIGH_SPEED);
 8001ce0:	2202      	movs	r2, #2
 8001ce2:	2100      	movs	r1, #0
 8001ce4:	487d      	ldr	r0, [pc, #500]	; (8001edc <APP_vInit+0x344>)
 8001ce6:	f7ff fa12 	bl	800110e <MGPIO_vSetPinOutputSpeed>
	MGPIO_vSetPinMode(APP_RIGHT_MOTOR_PIN1, MGPIO_MODE_OUTPUT);
 8001cea:	2201      	movs	r2, #1
 8001cec:	2101      	movs	r1, #1
 8001cee:	487b      	ldr	r0, [pc, #492]	; (8001edc <APP_vInit+0x344>)
 8001cf0:	f7ff f9c5 	bl	800107e <MGPIO_vSetPinMode>
	MGPIO_vSetPinOutputType(APP_RIGHT_MOTOR_PIN1, MGPIO_OUTPUT_TYPE_PP);
 8001cf4:	2200      	movs	r2, #0
 8001cf6:	2101      	movs	r1, #1
 8001cf8:	4878      	ldr	r0, [pc, #480]	; (8001edc <APP_vInit+0x344>)
 8001cfa:	f7ff f9e5 	bl	80010c8 <MGPIO_vSetPinOutputType>
	MGPIO_vSetPinOutputSpeed(APP_RIGHT_MOTOR_PIN1, MGPIO_HIGH_SPEED);
 8001cfe:	2202      	movs	r2, #2
 8001d00:	2101      	movs	r1, #1
 8001d02:	4876      	ldr	r0, [pc, #472]	; (8001edc <APP_vInit+0x344>)
 8001d04:	f7ff fa03 	bl	800110e <MGPIO_vSetPinOutputSpeed>
	MGPIO_vSetPinMode(APP_LEFT_MOTOR_PIN0, MGPIO_MODE_OUTPUT);
 8001d08:	2201      	movs	r2, #1
 8001d0a:	2102      	movs	r1, #2
 8001d0c:	4873      	ldr	r0, [pc, #460]	; (8001edc <APP_vInit+0x344>)
 8001d0e:	f7ff f9b6 	bl	800107e <MGPIO_vSetPinMode>
	MGPIO_vSetPinOutputType(APP_LEFT_MOTOR_PIN0, MGPIO_OUTPUT_TYPE_PP);
 8001d12:	2200      	movs	r2, #0
 8001d14:	2102      	movs	r1, #2
 8001d16:	4871      	ldr	r0, [pc, #452]	; (8001edc <APP_vInit+0x344>)
 8001d18:	f7ff f9d6 	bl	80010c8 <MGPIO_vSetPinOutputType>
	MGPIO_vSetPinOutputSpeed(APP_LEFT_MOTOR_PIN0, MGPIO_HIGH_SPEED);
 8001d1c:	2202      	movs	r2, #2
 8001d1e:	2102      	movs	r1, #2
 8001d20:	486e      	ldr	r0, [pc, #440]	; (8001edc <APP_vInit+0x344>)
 8001d22:	f7ff f9f4 	bl	800110e <MGPIO_vSetPinOutputSpeed>
	MGPIO_vSetPinMode(APP_LEFT_MOTOR_PIN1, MGPIO_MODE_OUTPUT);
 8001d26:	2201      	movs	r2, #1
 8001d28:	2103      	movs	r1, #3
 8001d2a:	486c      	ldr	r0, [pc, #432]	; (8001edc <APP_vInit+0x344>)
 8001d2c:	f7ff f9a7 	bl	800107e <MGPIO_vSetPinMode>
	MGPIO_vSetPinOutputType(APP_LEFT_MOTOR_PIN1, MGPIO_OUTPUT_TYPE_PP);
 8001d30:	2200      	movs	r2, #0
 8001d32:	2103      	movs	r1, #3
 8001d34:	4869      	ldr	r0, [pc, #420]	; (8001edc <APP_vInit+0x344>)
 8001d36:	f7ff f9c7 	bl	80010c8 <MGPIO_vSetPinOutputType>
	MGPIO_vSetPinOutputSpeed(APP_LEFT_MOTOR_PIN1, MGPIO_HIGH_SPEED);
 8001d3a:	2202      	movs	r2, #2
 8001d3c:	2103      	movs	r1, #3
 8001d3e:	4867      	ldr	r0, [pc, #412]	; (8001edc <APP_vInit+0x344>)
 8001d40:	f7ff f9e5 	bl	800110e <MGPIO_vSetPinOutputSpeed>

	MGPIO_vSetPinValue(APP_RIGHT_MOTOR_PIN0, MGPIO_OUTPUT_LOW);
 8001d44:	2200      	movs	r2, #0
 8001d46:	2100      	movs	r1, #0
 8001d48:	4864      	ldr	r0, [pc, #400]	; (8001edc <APP_vInit+0x344>)
 8001d4a:	f7ff fa64 	bl	8001216 <MGPIO_vSetPinValue>
	MGPIO_vSetPinValue(APP_RIGHT_MOTOR_PIN1, MGPIO_OUTPUT_LOW);
 8001d4e:	2200      	movs	r2, #0
 8001d50:	2101      	movs	r1, #1
 8001d52:	4862      	ldr	r0, [pc, #392]	; (8001edc <APP_vInit+0x344>)
 8001d54:	f7ff fa5f 	bl	8001216 <MGPIO_vSetPinValue>
	MGPIO_vSetPinValue(APP_LEFT_MOTOR_PIN0, MGPIO_OUTPUT_LOW);
 8001d58:	2200      	movs	r2, #0
 8001d5a:	2102      	movs	r1, #2
 8001d5c:	485f      	ldr	r0, [pc, #380]	; (8001edc <APP_vInit+0x344>)
 8001d5e:	f7ff fa5a 	bl	8001216 <MGPIO_vSetPinValue>
	MGPIO_vSetPinValue(APP_LEFT_MOTOR_PIN1, MGPIO_OUTPUT_LOW);
 8001d62:	2200      	movs	r2, #0
 8001d64:	2103      	movs	r1, #3
 8001d66:	485d      	ldr	r0, [pc, #372]	; (8001edc <APP_vInit+0x344>)
 8001d68:	f7ff fa55 	bl	8001216 <MGPIO_vSetPinValue>
	/**********************************************************************************************/

	/************************************* ADC CONFIGURATIONS *************************************/
	/* INITIALIZE ADC */
	MADC_vInit();
 8001d6c:	f7fe fe72 	bl	8000a54 <MADC_vInit>
	/* SET THE NUMBER OF CONVERSIONS TO THE NUMBER OF IRS IN THE ARRAY */
	MADC_vSetNumberOfConversions(MADC_REGULAR_GROUP, MADC_FIVE_CONVERSIONS);
 8001d70:	2104      	movs	r1, #4
 8001d72:	2000      	movs	r0, #0
 8001d74:	f7fe ff7a 	bl	8000c6c <MADC_vSetNumberOfConversions>
	/* SET ALL OF THEIR SAMPLE TIMES */
	MADC_vSetSamplingTime(APP_IR0_CHANNEL, MADC_SAMPLING_CYCLES_3);
 8001d78:	2100      	movs	r1, #0
 8001d7a:	2000      	movs	r0, #0
 8001d7c:	f7fe ff18 	bl	8000bb0 <MADC_vSetSamplingTime>
	MADC_vSetSamplingTime(APP_IR1_CHANNEL, MADC_SAMPLING_CYCLES_3);
 8001d80:	2100      	movs	r1, #0
 8001d82:	2001      	movs	r0, #1
 8001d84:	f7fe ff14 	bl	8000bb0 <MADC_vSetSamplingTime>
	MADC_vSetSamplingTime(APP_IR2_CHANNEL, MADC_SAMPLING_CYCLES_3);
 8001d88:	2100      	movs	r1, #0
 8001d8a:	2002      	movs	r0, #2
 8001d8c:	f7fe ff10 	bl	8000bb0 <MADC_vSetSamplingTime>
	MADC_vSetSamplingTime(APP_IR3_CHANNEL, MADC_SAMPLING_CYCLES_3);
 8001d90:	2100      	movs	r1, #0
 8001d92:	2003      	movs	r0, #3
 8001d94:	f7fe ff0c 	bl	8000bb0 <MADC_vSetSamplingTime>
	MADC_vSetSamplingTime(APP_IR4_CHANNEL, MADC_SAMPLING_CYCLES_3);
 8001d98:	2100      	movs	r1, #0
 8001d9a:	2004      	movs	r0, #4
 8001d9c:	f7fe ff08 	bl	8000bb0 <MADC_vSetSamplingTime>
	/* SET THEIR SEQUENCE */
	MADC_vSetSequence(MADC_REGULAR_GROUP, APP_IR0_CHANNEL, MADC_SEQUENCE_1);
 8001da0:	2200      	movs	r2, #0
 8001da2:	2100      	movs	r1, #0
 8001da4:	2000      	movs	r0, #0
 8001da6:	f7fe ff89 	bl	8000cbc <MADC_vSetSequence>
	MADC_vSetSequence(MADC_REGULAR_GROUP, APP_IR1_CHANNEL, MADC_SEQUENCE_2);
 8001daa:	2201      	movs	r2, #1
 8001dac:	2101      	movs	r1, #1
 8001dae:	2000      	movs	r0, #0
 8001db0:	f7fe ff84 	bl	8000cbc <MADC_vSetSequence>
	MADC_vSetSequence(MADC_REGULAR_GROUP, APP_IR2_CHANNEL, MADC_SEQUENCE_3);
 8001db4:	2202      	movs	r2, #2
 8001db6:	2102      	movs	r1, #2
 8001db8:	2000      	movs	r0, #0
 8001dba:	f7fe ff7f 	bl	8000cbc <MADC_vSetSequence>
	MADC_vSetSequence(MADC_REGULAR_GROUP, APP_IR3_CHANNEL, MADC_SEQUENCE_4);
 8001dbe:	2203      	movs	r2, #3
 8001dc0:	2103      	movs	r1, #3
 8001dc2:	2000      	movs	r0, #0
 8001dc4:	f7fe ff7a 	bl	8000cbc <MADC_vSetSequence>
	MADC_vSetSequence(MADC_REGULAR_GROUP, APP_IR4_CHANNEL, MADC_SEQUENCE_5);
 8001dc8:	2204      	movs	r2, #4
 8001dca:	2104      	movs	r1, #4
 8001dcc:	2000      	movs	r0, #0
 8001dce:	f7fe ff75 	bl	8000cbc <MADC_vSetSequence>
	/**********************************************************************************************/

	/********************************* DMA CONFIGURATIONS FOR ADC *********************************/
	volatile u32* DMAsrcAddr = MADC_u32SetRegularDMA(MADC_ENABLE);
 8001dd2:	2001      	movs	r0, #1
 8001dd4:	f7fe fec2 	bl	8000b5c <MADC_u32SetRegularDMA>
 8001dd8:	6378      	str	r0, [r7, #52]	; 0x34
	/* Enable DMA */
	MDMA_DirectInitType dma = {MDMA_DISABLE, MDMA_DIRECTION_PER_MEM, MDMA_ENABLE,
 8001dda:	4a41      	ldr	r2, [pc, #260]	; (8001ee0 <APP_vInit+0x348>)
 8001ddc:	f107 032c 	add.w	r3, r7, #44	; 0x2c
 8001de0:	e892 0003 	ldmia.w	r2, {r0, r1}
 8001de4:	6018      	str	r0, [r3, #0]
 8001de6:	3304      	adds	r3, #4
 8001de8:	8019      	strh	r1, [r3, #0]
 8001dea:	3302      	adds	r3, #2
 8001dec:	0c0a      	lsrs	r2, r1, #16
 8001dee:	701a      	strb	r2, [r3, #0]
								MDMA_DISABLE, MDMA_ENABLE, MDMA_PRIORITY_VHIGH, MDMA_CHANNEL_0};
	MDMA_TransferStruct dmat = {(u32*)DMAsrcAddr, (u32*)APP_u16IRData, 5, MDMA_SIZE_HWORD};
 8001df0:	6b7b      	ldr	r3, [r7, #52]	; 0x34
 8001df2:	623b      	str	r3, [r7, #32]
 8001df4:	4b3b      	ldr	r3, [pc, #236]	; (8001ee4 <APP_vInit+0x34c>)
 8001df6:	627b      	str	r3, [r7, #36]	; 0x24
 8001df8:	2305      	movs	r3, #5
 8001dfa:	853b      	strh	r3, [r7, #40]	; 0x28
 8001dfc:	2301      	movs	r3, #1
 8001dfe:	f887 302a 	strb.w	r3, [r7, #42]	; 0x2a
	MDMA_vDirectInit(DMA2, MDMA_STREAM_0, &dma);
 8001e02:	f107 032c 	add.w	r3, r7, #44	; 0x2c
 8001e06:	461a      	mov	r2, r3
 8001e08:	2100      	movs	r1, #0
 8001e0a:	4837      	ldr	r0, [pc, #220]	; (8001ee8 <APP_vInit+0x350>)
 8001e0c:	f7fe ffd2 	bl	8000db4 <MDMA_vDirectInit>
	MDMA_vStart(DMA2, MDMA_STREAM_0, &dmat);
 8001e10:	f107 0320 	add.w	r3, r7, #32
 8001e14:	461a      	mov	r2, r3
 8001e16:	2100      	movs	r1, #0
 8001e18:	4833      	ldr	r0, [pc, #204]	; (8001ee8 <APP_vInit+0x350>)
 8001e1a:	f7ff f8b6 	bl	8000f8a <MDMA_vStart>
	MADC_vEnable(MADC_ENABLE, MADC_DISABLE);
 8001e1e:	2100      	movs	r1, #0
 8001e20:	2001      	movs	r0, #1
 8001e22:	f7fe fe73 	bl	8000b0c <MADC_vEnable>
	/**********************************************************************************************/

	/************************************ USART CONFIGURATIONS ************************************/
	/* Initialize USART */
	MUSART_InitTypeDef uart = {9600, MUSART_DATAWIDTH_8BIT,
 8001e26:	4a31      	ldr	r2, [pc, #196]	; (8001eec <APP_vInit+0x354>)
 8001e28:	f107 0314 	add.w	r3, r7, #20
 8001e2c:	ca07      	ldmia	r2, {r0, r1, r2}
 8001e2e:	e883 0007 	stmia.w	r3, {r0, r1, r2}
							MUSART_STOP_ONE_BIT, MUSART_DISABLE,
							MUSART_PARITY_EVEN, MUSART_DIRECTION_TX_RX,
							MUSART_DISABLE, MUSART_OVER_SAMPLING_16};
	MUSART_ClockInitTypeDef uart_clock = {MUSART_DISABLE, 0, 0, 0};	/* Disable USART's Clock */
 8001e32:	2300      	movs	r3, #0
 8001e34:	613b      	str	r3, [r7, #16]
	MUSART_vInit(APP_MOBILE_USART, &uart, &uart_clock);
 8001e36:	f107 0210 	add.w	r2, r7, #16
 8001e3a:	f107 0314 	add.w	r3, r7, #20
 8001e3e:	4619      	mov	r1, r3
 8001e40:	482b      	ldr	r0, [pc, #172]	; (8001ef0 <APP_vInit+0x358>)
 8001e42:	f7ff fcb9 	bl	80017b8 <MUSART_vInit>
	MUSART_vEnable(APP_MOBILE_USART);
 8001e46:	482a      	ldr	r0, [pc, #168]	; (8001ef0 <APP_vInit+0x358>)
 8001e48:	f7ff fdee 	bl	8001a28 <MUSART_vEnable>
	MUSART_vRxIntStatus(APP_MOBILE_USART, MUSART_DISABLE);
 8001e4c:	2100      	movs	r1, #0
 8001e4e:	4828      	ldr	r0, [pc, #160]	; (8001ef0 <APP_vInit+0x358>)
 8001e50:	f7ff fe0c 	bl	8001a6c <MUSART_vRxIntStatus>
	/**********************************************************************************************/

	/************************ DMA CONFIGURATION FOR USART DIRECTION BUFFER ************************/
	dma.PriorityLevel = MDMA_PRIORITY_HIGH;
 8001e54:	2302      	movs	r3, #2
 8001e56:	f887 3031 	strb.w	r3, [r7, #49]	; 0x31
	dma.Channel = MDMA_CHANNEL_4;
 8001e5a:	2304      	movs	r3, #4
 8001e5c:	f887 3032 	strb.w	r3, [r7, #50]	; 0x32
	dmat.SrcAddr = (u32*)MUSART_u32EnableRxDMA(APP_MOBILE_USART);
 8001e60:	4823      	ldr	r0, [pc, #140]	; (8001ef0 <APP_vInit+0x358>)
 8001e62:	f7ff fdf1 	bl	8001a48 <MUSART_u32EnableRxDMA>
 8001e66:	4603      	mov	r3, r0
 8001e68:	623b      	str	r3, [r7, #32]
	dmat.DstAddr = (u32*)(&APP_u8DirBuffer);
 8001e6a:	4b22      	ldr	r3, [pc, #136]	; (8001ef4 <APP_vInit+0x35c>)
 8001e6c:	627b      	str	r3, [r7, #36]	; 0x24
	dmat.Length = APP_MOBILE_MSG_LEN;
 8001e6e:	2306      	movs	r3, #6
 8001e70:	853b      	strh	r3, [r7, #40]	; 0x28
	dmat.Size = MDMA_SIZE_BYTE;
 8001e72:	2300      	movs	r3, #0
 8001e74:	f887 302a 	strb.w	r3, [r7, #42]	; 0x2a
	MDMA_vDirectInit(DMA2, MDMA_STREAM_5, &dma);
 8001e78:	f107 032c 	add.w	r3, r7, #44	; 0x2c
 8001e7c:	461a      	mov	r2, r3
 8001e7e:	2105      	movs	r1, #5
 8001e80:	4819      	ldr	r0, [pc, #100]	; (8001ee8 <APP_vInit+0x350>)
 8001e82:	f7fe ff97 	bl	8000db4 <MDMA_vDirectInit>
	MDMA_vStart(DMA2, MDMA_STREAM_5, &dmat);
 8001e86:	f107 0320 	add.w	r3, r7, #32
 8001e8a:	461a      	mov	r2, r3
 8001e8c:	2105      	movs	r1, #5
 8001e8e:	4816      	ldr	r0, [pc, #88]	; (8001ee8 <APP_vInit+0x350>)
 8001e90:	f7ff f87b 	bl	8000f8a <MDMA_vStart>
	/**********************************************************************************************/

	/*********************************** GPT PWM CONFIGURATIONS ***********************************/
	MGPT_PWMInitTypeDef gpt = {APP_CHANNEL_PWM_R, MGPT_PWM_MODE_1, APP_PWM_PERIOD,
 8001e94:	4b18      	ldr	r3, [pc, #96]	; (8001ef8 <APP_vInit+0x360>)
 8001e96:	463c      	mov	r4, r7
 8001e98:	cb0f      	ldmia	r3, {r0, r1, r2, r3}
 8001e9a:	e884 000f 	stmia.w	r4, {r0, r1, r2, r3}
						APP_PWM_PRESCALER, MGPT_ALLIGNMENT_EDGE_MODE, MGPT_DIRECTION_UP_COUNTER,
						MGPT_CHANNEL_OUTPUT_ACTIVE_HIGH};
	MGPT_vPWMInit(APP_TIM_PWM_R, &gpt);
 8001e9e:	463b      	mov	r3, r7
 8001ea0:	4619      	mov	r1, r3
 8001ea2:	4816      	ldr	r0, [pc, #88]	; (8001efc <APP_vInit+0x364>)
 8001ea4:	f7ff f9f4 	bl	8001290 <MGPT_vPWMInit>
	gpt.Channel = APP_CHANNEL_PWM_L;
 8001ea8:	2300      	movs	r3, #0
 8001eaa:	703b      	strb	r3, [r7, #0]
	MGPT_vPWMInit(APP_TIM_PWM_L, &gpt);
 8001eac:	463b      	mov	r3, r7
 8001eae:	4619      	mov	r1, r3
 8001eb0:	4813      	ldr	r0, [pc, #76]	; (8001f00 <APP_vInit+0x368>)
 8001eb2:	f7ff f9ed 	bl	8001290 <MGPT_vPWMInit>
	/* SET THE SPEED TO 0 */
	MGPT_vSetPWMDutyCycle(APP_TIM_PWM_R, APP_CHANNEL_PWM_R, APP_CAR_MOVE_ZERO_FORCE);
 8001eb6:	2200      	movs	r2, #0
 8001eb8:	2100      	movs	r1, #0
 8001eba:	4810      	ldr	r0, [pc, #64]	; (8001efc <APP_vInit+0x364>)
 8001ebc:	f7ff fb26 	bl	800150c <MGPT_vSetPWMDutyCycle>
	MGPT_vSetPWMDutyCycle(APP_TIM_PWM_L, APP_CHANNEL_PWM_L, APP_CAR_MOVE_ZERO_FORCE);
 8001ec0:	2200      	movs	r2, #0
 8001ec2:	2100      	movs	r1, #0
 8001ec4:	480e      	ldr	r0, [pc, #56]	; (8001f00 <APP_vInit+0x368>)
 8001ec6:	f7ff fb21 	bl	800150c <MGPT_vSetPWMDutyCycle>
	/**********************************************************************************************/
}
 8001eca:	bf00      	nop
 8001ecc:	373c      	adds	r7, #60	; 0x3c
 8001ece:	46bd      	mov	sp, r7
 8001ed0:	bd90      	pop	{r4, r7, pc}
 8001ed2:	bf00      	nop
 8001ed4:	40020800 	.word	0x40020800
 8001ed8:	40020000 	.word	0x40020000
 8001edc:	40020400 	.word	0x40020400
 8001ee0:	080024cc 	.word	0x080024cc
 8001ee4:	20000040 	.word	0x20000040
 8001ee8:	40026400 	.word	0x40026400
 8001eec:	080024d4 	.word	0x080024d4
 8001ef0:	40011000 	.word	0x40011000
 8001ef4:	20000060 	.word	0x20000060
 8001ef8:	080024e0 	.word	0x080024e0
 8001efc:	40000400 	.word	0x40000400
 8001f00:	40000800 	.word	0x40000800

08001f04 <APP_vDriveMotors>:
 * @param Right_Dir Direction of the right wheel.
 * @param Left_Dir Direction of the left wheel.
 * @note The direction can be forward, backward, or stop.
 * @note The speed of the wheels should be set before calling this function.
 */
void APP_vDriveMotors(APP_WHEEL_DIR Right_Dir, APP_WHEEL_DIR Left_Dir) {
 8001f04:	b580      	push	{r7, lr}
 8001f06:	b082      	sub	sp, #8
 8001f08:	af00      	add	r7, sp, #0
 8001f0a:	4603      	mov	r3, r0
 8001f0c:	460a      	mov	r2, r1
 8001f0e:	71fb      	strb	r3, [r7, #7]
 8001f10:	4613      	mov	r3, r2
 8001f12:	71bb      	strb	r3, [r7, #6]
	/* SET THE WHEELS DIRECTION */
	if (Right_Dir == APP_CLOCK_WISE) {
 8001f14:	79fb      	ldrb	r3, [r7, #7]
 8001f16:	2b00      	cmp	r3, #0
 8001f18:	d10a      	bne.n	8001f30 <APP_vDriveMotors+0x2c>
		MGPIO_vSetPinValue(APP_RIGHT_MOTOR_PIN0, MGPIO_OUTPUT_HIGH);
 8001f1a:	2201      	movs	r2, #1
 8001f1c:	2100      	movs	r1, #0
 8001f1e:	481e      	ldr	r0, [pc, #120]	; (8001f98 <APP_vDriveMotors+0x94>)
 8001f20:	f7ff f979 	bl	8001216 <MGPIO_vSetPinValue>
		MGPIO_vSetPinValue(APP_RIGHT_MOTOR_PIN1, MGPIO_OUTPUT_LOW);
 8001f24:	2200      	movs	r2, #0
 8001f26:	2101      	movs	r1, #1
 8001f28:	481b      	ldr	r0, [pc, #108]	; (8001f98 <APP_vDriveMotors+0x94>)
 8001f2a:	f7ff f974 	bl	8001216 <MGPIO_vSetPinValue>
 8001f2e:	e009      	b.n	8001f44 <APP_vDriveMotors+0x40>
	} else {
		MGPIO_vSetPinValue(APP_RIGHT_MOTOR_PIN0, MGPIO_OUTPUT_LOW);
 8001f30:	2200      	movs	r2, #0
 8001f32:	2100      	movs	r1, #0
 8001f34:	4818      	ldr	r0, [pc, #96]	; (8001f98 <APP_vDriveMotors+0x94>)
 8001f36:	f7ff f96e 	bl	8001216 <MGPIO_vSetPinValue>
		MGPIO_vSetPinValue(APP_RIGHT_MOTOR_PIN1, MGPIO_OUTPUT_HIGH);
 8001f3a:	2201      	movs	r2, #1
 8001f3c:	2101      	movs	r1, #1
 8001f3e:	4816      	ldr	r0, [pc, #88]	; (8001f98 <APP_vDriveMotors+0x94>)
 8001f40:	f7ff f969 	bl	8001216 <MGPIO_vSetPinValue>
	}

	if (Left_Dir == APP_CLOCK_WISE) {
 8001f44:	79bb      	ldrb	r3, [r7, #6]
 8001f46:	2b00      	cmp	r3, #0
 8001f48:	d10a      	bne.n	8001f60 <APP_vDriveMotors+0x5c>
		MGPIO_vSetPinValue(APP_LEFT_MOTOR_PIN0, MGPIO_OUTPUT_LOW);
 8001f4a:	2200      	movs	r2, #0
 8001f4c:	2102      	movs	r1, #2
 8001f4e:	4812      	ldr	r0, [pc, #72]	; (8001f98 <APP_vDriveMotors+0x94>)
 8001f50:	f7ff f961 	bl	8001216 <MGPIO_vSetPinValue>
		MGPIO_vSetPinValue(APP_LEFT_MOTOR_PIN1, MGPIO_OUTPUT_HIGH);
 8001f54:	2201      	movs	r2, #1
 8001f56:	2103      	movs	r1, #3
 8001f58:	480f      	ldr	r0, [pc, #60]	; (8001f98 <APP_vDriveMotors+0x94>)
 8001f5a:	f7ff f95c 	bl	8001216 <MGPIO_vSetPinValue>
 8001f5e:	e009      	b.n	8001f74 <APP_vDriveMotors+0x70>
	} else {
		MGPIO_vSetPinValue(APP_LEFT_MOTOR_PIN0, MGPIO_OUTPUT_HIGH);
 8001f60:	2201      	movs	r2, #1
 8001f62:	2102      	movs	r1, #2
 8001f64:	480c      	ldr	r0, [pc, #48]	; (8001f98 <APP_vDriveMotors+0x94>)
 8001f66:	f7ff f956 	bl	8001216 <MGPIO_vSetPinValue>
		MGPIO_vSetPinValue(APP_LEFT_MOTOR_PIN1, MGPIO_OUTPUT_LOW);
 8001f6a:	2200      	movs	r2, #0
 8001f6c:	2103      	movs	r1, #3
 8001f6e:	480a      	ldr	r0, [pc, #40]	; (8001f98 <APP_vDriveMotors+0x94>)
 8001f70:	f7ff f951 	bl	8001216 <MGPIO_vSetPinValue>
	}

	/* SET THE WHEELS SPEED */
	MGPT_vSetPWMDutyCycle(APP_TIM_PWM_R, APP_CHANNEL_PWM_R, (u32)APP_s32SpeedRight);
 8001f74:	4b09      	ldr	r3, [pc, #36]	; (8001f9c <APP_vDriveMotors+0x98>)
 8001f76:	681b      	ldr	r3, [r3, #0]
 8001f78:	461a      	mov	r2, r3
 8001f7a:	2100      	movs	r1, #0
 8001f7c:	4808      	ldr	r0, [pc, #32]	; (8001fa0 <APP_vDriveMotors+0x9c>)
 8001f7e:	f7ff fac5 	bl	800150c <MGPT_vSetPWMDutyCycle>
	MGPT_vSetPWMDutyCycle(APP_TIM_PWM_L, APP_CHANNEL_PWM_L, (u32)APP_s32SpeedLeft);
 8001f82:	4b08      	ldr	r3, [pc, #32]	; (8001fa4 <APP_vDriveMotors+0xa0>)
 8001f84:	681b      	ldr	r3, [r3, #0]
 8001f86:	461a      	mov	r2, r3
 8001f88:	2100      	movs	r1, #0
 8001f8a:	4807      	ldr	r0, [pc, #28]	; (8001fa8 <APP_vDriveMotors+0xa4>)
 8001f8c:	f7ff fabe 	bl	800150c <MGPT_vSetPWMDutyCycle>
}
 8001f90:	bf00      	nop
 8001f92:	3708      	adds	r7, #8
 8001f94:	46bd      	mov	sp, r7
 8001f96:	bd80      	pop	{r7, pc}
 8001f98:	40020400 	.word	0x40020400
 8001f9c:	2000005c 	.word	0x2000005c
 8001fa0:	40000400 	.word	0x40000400
 8001fa4:	20000058 	.word	0x20000058
 8001fa8:	40000800 	.word	0x40000800

08001fac <APP_vCalibrateLineFollowing>:
 * then calculates the threshold values to be used for line detection.
 *
 * @param None
 * @return None
 */
void APP_vCalibrateLineFollowing(void) {
 8001fac:	b580      	push	{r7, lr}
 8001fae:	b088      	sub	sp, #32
 8001fb0:	af00      	add	r7, sp, #0
	u16 minVal[APP_IR_ARRAY_SIZE];
	u16 maxVal[APP_IR_ARRAY_SIZE];
	/* INITIALIZE THE MINIMUM AND MAXIMUM */
	u8 i = 0;
 8001fb2:	2300      	movs	r3, #0
 8001fb4:	77fb      	strb	r3, [r7, #31]
	u16 greatcounter = 0;
 8001fb6:	2300      	movs	r3, #0
 8001fb8:	83bb      	strh	r3, [r7, #28]
	for (i = 0; i < APP_IR_ARRAY_SIZE; i++) {
 8001fba:	2300      	movs	r3, #0
 8001fbc:	77fb      	strb	r3, [r7, #31]
 8001fbe:	e016      	b.n	8001fee <APP_vCalibrateLineFollowing+0x42>
		minVal[i] = APP_u16IRData[i];
 8001fc0:	7ffa      	ldrb	r2, [r7, #31]
 8001fc2:	7ffb      	ldrb	r3, [r7, #31]
 8001fc4:	4944      	ldr	r1, [pc, #272]	; (80020d8 <APP_vCalibrateLineFollowing+0x12c>)
 8001fc6:	f831 2012 	ldrh.w	r2, [r1, r2, lsl #1]
 8001fca:	005b      	lsls	r3, r3, #1
 8001fcc:	3320      	adds	r3, #32
 8001fce:	443b      	add	r3, r7
 8001fd0:	f823 2c10 	strh.w	r2, [r3, #-16]
		maxVal[i] = APP_u16IRData[i];
 8001fd4:	7ffa      	ldrb	r2, [r7, #31]
 8001fd6:	7ffb      	ldrb	r3, [r7, #31]
 8001fd8:	493f      	ldr	r1, [pc, #252]	; (80020d8 <APP_vCalibrateLineFollowing+0x12c>)
 8001fda:	f831 2012 	ldrh.w	r2, [r1, r2, lsl #1]
 8001fde:	005b      	lsls	r3, r3, #1
 8001fe0:	3320      	adds	r3, #32
 8001fe2:	443b      	add	r3, r7
 8001fe4:	f823 2c1c 	strh.w	r2, [r3, #-28]
	for (i = 0; i < APP_IR_ARRAY_SIZE; i++) {
 8001fe8:	7ffb      	ldrb	r3, [r7, #31]
 8001fea:	3301      	adds	r3, #1
 8001fec:	77fb      	strb	r3, [r7, #31]
 8001fee:	7ffb      	ldrb	r3, [r7, #31]
 8001ff0:	2b04      	cmp	r3, #4
 8001ff2:	d9e5      	bls.n	8001fc0 <APP_vCalibrateLineFollowing+0x14>
	}
	/* SET THE MOTOR TO MAX SPEED TO ROTATE THE ROBOT  TO GET MULTIPLE VALUES */
    APP_s32SpeedRight = APP_AVERAGE_SPEED/2;
 8001ff4:	4b39      	ldr	r3, [pc, #228]	; (80020dc <APP_vCalibrateLineFollowing+0x130>)
 8001ff6:	f44f 727a 	mov.w	r2, #1000	; 0x3e8
 8001ffa:	601a      	str	r2, [r3, #0]
    APP_s32SpeedLeft = APP_AVERAGE_SPEED/2;
 8001ffc:	4b38      	ldr	r3, [pc, #224]	; (80020e0 <APP_vCalibrateLineFollowing+0x134>)
 8001ffe:	f44f 727a 	mov.w	r2, #1000	; 0x3e8
 8002002:	601a      	str	r2, [r3, #0]
    APP_vDriveMotors(APP_CLOCK_WISE, APP_ANTI_CLOCK_WISE);
 8002004:	2101      	movs	r1, #1
 8002006:	2000      	movs	r0, #0
 8002008:	f7ff ff7c 	bl	8001f04 <APP_vDriveMotors>
	/* START CALIBRATION PROCESS */
	for (greatcounter = 0; greatcounter < 3000; greatcounter++) {
 800200c:	2300      	movs	r3, #0
 800200e:	83bb      	strh	r3, [r7, #28]
 8002010:	e037      	b.n	8002082 <APP_vCalibrateLineFollowing+0xd6>
		for (i = 0; i < APP_IR_ARRAY_SIZE; i++) {
 8002012:	2300      	movs	r3, #0
 8002014:	77fb      	strb	r3, [r7, #31]
 8002016:	e02e      	b.n	8002076 <APP_vCalibrateLineFollowing+0xca>
			if (APP_u16IRData[i] > maxVal[i]) { maxVal[i] = APP_u16IRData[i]; }
 8002018:	7ffb      	ldrb	r3, [r7, #31]
 800201a:	4a2f      	ldr	r2, [pc, #188]	; (80020d8 <APP_vCalibrateLineFollowing+0x12c>)
 800201c:	f832 2013 	ldrh.w	r2, [r2, r3, lsl #1]
 8002020:	7ffb      	ldrb	r3, [r7, #31]
 8002022:	005b      	lsls	r3, r3, #1
 8002024:	3320      	adds	r3, #32
 8002026:	443b      	add	r3, r7
 8002028:	f833 3c1c 	ldrh.w	r3, [r3, #-28]
 800202c:	429a      	cmp	r2, r3
 800202e:	d909      	bls.n	8002044 <APP_vCalibrateLineFollowing+0x98>
 8002030:	7ffa      	ldrb	r2, [r7, #31]
 8002032:	7ffb      	ldrb	r3, [r7, #31]
 8002034:	4928      	ldr	r1, [pc, #160]	; (80020d8 <APP_vCalibrateLineFollowing+0x12c>)
 8002036:	f831 2012 	ldrh.w	r2, [r1, r2, lsl #1]
 800203a:	005b      	lsls	r3, r3, #1
 800203c:	3320      	adds	r3, #32
 800203e:	443b      	add	r3, r7
 8002040:	f823 2c1c 	strh.w	r2, [r3, #-28]
			if (APP_u16IRData[i] < minVal[i]) { minVal[i] = APP_u16IRData[i]; }
 8002044:	7ffb      	ldrb	r3, [r7, #31]
 8002046:	4a24      	ldr	r2, [pc, #144]	; (80020d8 <APP_vCalibrateLineFollowing+0x12c>)
 8002048:	f832 2013 	ldrh.w	r2, [r2, r3, lsl #1]
 800204c:	7ffb      	ldrb	r3, [r7, #31]
 800204e:	005b      	lsls	r3, r3, #1
 8002050:	3320      	adds	r3, #32
 8002052:	443b      	add	r3, r7
 8002054:	f833 3c10 	ldrh.w	r3, [r3, #-16]
 8002058:	429a      	cmp	r2, r3
 800205a:	d209      	bcs.n	8002070 <APP_vCalibrateLineFollowing+0xc4>
 800205c:	7ffa      	ldrb	r2, [r7, #31]
 800205e:	7ffb      	ldrb	r3, [r7, #31]
 8002060:	491d      	ldr	r1, [pc, #116]	; (80020d8 <APP_vCalibrateLineFollowing+0x12c>)
 8002062:	f831 2012 	ldrh.w	r2, [r1, r2, lsl #1]
 8002066:	005b      	lsls	r3, r3, #1
 8002068:	3320      	adds	r3, #32
 800206a:	443b      	add	r3, r7
 800206c:	f823 2c10 	strh.w	r2, [r3, #-16]
		for (i = 0; i < APP_IR_ARRAY_SIZE; i++) {
 8002070:	7ffb      	ldrb	r3, [r7, #31]
 8002072:	3301      	adds	r3, #1
 8002074:	77fb      	strb	r3, [r7, #31]
 8002076:	7ffb      	ldrb	r3, [r7, #31]
 8002078:	2b04      	cmp	r3, #4
 800207a:	d9cd      	bls.n	8002018 <APP_vCalibrateLineFollowing+0x6c>
	for (greatcounter = 0; greatcounter < 3000; greatcounter++) {
 800207c:	8bbb      	ldrh	r3, [r7, #28]
 800207e:	3301      	adds	r3, #1
 8002080:	83bb      	strh	r3, [r7, #28]
 8002082:	8bbb      	ldrh	r3, [r7, #28]
 8002084:	f640 32b7 	movw	r2, #2999	; 0xbb7
 8002088:	4293      	cmp	r3, r2
 800208a:	d9c2      	bls.n	8002012 <APP_vCalibrateLineFollowing+0x66>
		}
	}
	/* SET THE THRESHOLD */
	for (i = 0; i < APP_IR_ARRAY_SIZE; i++) { APP_u16IRThreshold[i] = (minVal[i] + maxVal[i]) / 2; }
 800208c:	2300      	movs	r3, #0
 800208e:	77fb      	strb	r3, [r7, #31]
 8002090:	e019      	b.n	80020c6 <APP_vCalibrateLineFollowing+0x11a>
 8002092:	7ffb      	ldrb	r3, [r7, #31]
 8002094:	005b      	lsls	r3, r3, #1
 8002096:	3320      	adds	r3, #32
 8002098:	443b      	add	r3, r7
 800209a:	f833 3c10 	ldrh.w	r3, [r3, #-16]
 800209e:	461a      	mov	r2, r3
 80020a0:	7ffb      	ldrb	r3, [r7, #31]
 80020a2:	005b      	lsls	r3, r3, #1
 80020a4:	3320      	adds	r3, #32
 80020a6:	443b      	add	r3, r7
 80020a8:	f833 3c1c 	ldrh.w	r3, [r3, #-28]
 80020ac:	4413      	add	r3, r2
 80020ae:	0fda      	lsrs	r2, r3, #31
 80020b0:	4413      	add	r3, r2
 80020b2:	105b      	asrs	r3, r3, #1
 80020b4:	461a      	mov	r2, r3
 80020b6:	7ffb      	ldrb	r3, [r7, #31]
 80020b8:	b291      	uxth	r1, r2
 80020ba:	4a0a      	ldr	r2, [pc, #40]	; (80020e4 <APP_vCalibrateLineFollowing+0x138>)
 80020bc:	f822 1013 	strh.w	r1, [r2, r3, lsl #1]
 80020c0:	7ffb      	ldrb	r3, [r7, #31]
 80020c2:	3301      	adds	r3, #1
 80020c4:	77fb      	strb	r3, [r7, #31]
 80020c6:	7ffb      	ldrb	r3, [r7, #31]
 80020c8:	2b04      	cmp	r3, #4
 80020ca:	d9e2      	bls.n	8002092 <APP_vCalibrateLineFollowing+0xe6>
}
 80020cc:	bf00      	nop
 80020ce:	bf00      	nop
 80020d0:	3720      	adds	r7, #32
 80020d2:	46bd      	mov	sp, r7
 80020d4:	bd80      	pop	{r7, pc}
 80020d6:	bf00      	nop
 80020d8:	20000040 	.word	0x20000040
 80020dc:	2000005c 	.word	0x2000005c
 80020e0:	20000058 	.word	0x20000058
 80020e4:	2000004c 	.word	0x2000004c

080020e8 <APP_vReturnToPointZero>:
 * Once the black line is detected, the car stops.
 *
 * @param None
 * @return None
 */
void APP_vReturnToPointZero(void) {
 80020e8:	b580      	push	{r7, lr}
 80020ea:	af00      	add	r7, sp, #0
	/* ROTATE THE CAR */
	APP_s32SpeedRight = APP_AVERAGE_SPEED;
 80020ec:	4b0f      	ldr	r3, [pc, #60]	; (800212c <APP_vReturnToPointZero+0x44>)
 80020ee:	f44f 62fa 	mov.w	r2, #2000	; 0x7d0
 80020f2:	601a      	str	r2, [r3, #0]
	APP_s32SpeedLeft = APP_AVERAGE_SPEED;
 80020f4:	4b0e      	ldr	r3, [pc, #56]	; (8002130 <APP_vReturnToPointZero+0x48>)
 80020f6:	f44f 62fa 	mov.w	r2, #2000	; 0x7d0
 80020fa:	601a      	str	r2, [r3, #0]
	APP_vDriveMotors(APP_CLOCK_WISE, APP_ANTI_CLOCK_WISE);
 80020fc:	2101      	movs	r1, #1
 80020fe:	2000      	movs	r0, #0
 8002100:	f7ff ff00 	bl	8001f04 <APP_vDriveMotors>
	/* KEEP ROTATING UNTILL REACHING THE BLACK LINE IN THE MIDDLE SENSOR */
	while (APP_u16IRData[2] > APP_u16IRThreshold[2]);
 8002104:	bf00      	nop
 8002106:	4b0b      	ldr	r3, [pc, #44]	; (8002134 <APP_vReturnToPointZero+0x4c>)
 8002108:	889a      	ldrh	r2, [r3, #4]
 800210a:	4b0b      	ldr	r3, [pc, #44]	; (8002138 <APP_vReturnToPointZero+0x50>)
 800210c:	889b      	ldrh	r3, [r3, #4]
 800210e:	429a      	cmp	r2, r3
 8002110:	d8f9      	bhi.n	8002106 <APP_vReturnToPointZero+0x1e>
	/* STOP THE CAR */
	APP_s32SpeedRight = APP_CAR_MOVE_ZERO_FORCE;
 8002112:	4b06      	ldr	r3, [pc, #24]	; (800212c <APP_vReturnToPointZero+0x44>)
 8002114:	2200      	movs	r2, #0
 8002116:	601a      	str	r2, [r3, #0]
	APP_s32SpeedLeft = APP_CAR_MOVE_ZERO_FORCE;
 8002118:	4b05      	ldr	r3, [pc, #20]	; (8002130 <APP_vReturnToPointZero+0x48>)
 800211a:	2200      	movs	r2, #0
 800211c:	601a      	str	r2, [r3, #0]
	APP_vDriveMotors(APP_CLOCK_WISE, APP_CLOCK_WISE);
 800211e:	2100      	movs	r1, #0
 8002120:	2000      	movs	r0, #0
 8002122:	f7ff feef 	bl	8001f04 <APP_vDriveMotors>
}
 8002126:	bf00      	nop
 8002128:	bd80      	pop	{r7, pc}
 800212a:	bf00      	nop
 800212c:	2000005c 	.word	0x2000005c
 8002130:	20000058 	.word	0x20000058
 8002134:	20000040 	.word	0x20000040
 8002138:	2000004c 	.word	0x2000004c
 800213c:	00000000 	.word	0x00000000

08002140 <APP_vPIDcontrol>:
 * It adjusts the speed of the left and right wheels accordingly to maintain the desired path.
 *
 * @param None
 * @return None
 */
void APP_vPIDcontrol(void) {
 8002140:	b580      	push	{r7, lr}
 8002142:	b082      	sub	sp, #8
 8002144:	af00      	add	r7, sp, #0
	// FIXME -- USAGE FAULT APPEARS DUE TO FLOATING POINT
	/* GET PID CONSTANTS */
	APP_f32Kp = 0.0006 * (1000.0 - APP_u16IRData[2]);
 8002146:	4b4e      	ldr	r3, [pc, #312]	; (8002280 <APP_vPIDcontrol+0x140>)
 8002148:	889b      	ldrh	r3, [r3, #4]
 800214a:	4618      	mov	r0, r3
 800214c:	f7fe f996 	bl	800047c <__aeabi_i2d>
 8002150:	4602      	mov	r2, r0
 8002152:	460b      	mov	r3, r1
 8002154:	f04f 0000 	mov.w	r0, #0
 8002158:	494a      	ldr	r1, [pc, #296]	; (8002284 <APP_vPIDcontrol+0x144>)
 800215a:	f7fe f841 	bl	80001e0 <__aeabi_dsub>
 800215e:	4602      	mov	r2, r0
 8002160:	460b      	mov	r3, r1
 8002162:	4610      	mov	r0, r2
 8002164:	4619      	mov	r1, r3
 8002166:	a344      	add	r3, pc, #272	; (adr r3, 8002278 <APP_vPIDcontrol+0x138>)
 8002168:	e9d3 2300 	ldrd	r2, r3, [r3]
 800216c:	f7fe f9f0 	bl	8000550 <__aeabi_dmul>
 8002170:	4602      	mov	r2, r0
 8002172:	460b      	mov	r3, r1
 8002174:	4610      	mov	r0, r2
 8002176:	4619      	mov	r1, r3
 8002178:	f7fe fc1c 	bl	80009b4 <__aeabi_d2f>
 800217c:	4603      	mov	r3, r0
 800217e:	4a42      	ldr	r2, [pc, #264]	; (8002288 <APP_vPIDcontrol+0x148>)
 8002180:	6013      	str	r3, [r2, #0]
	APP_f32Kd = 10.0 * APP_f32Kp;
 8002182:	4b41      	ldr	r3, [pc, #260]	; (8002288 <APP_vPIDcontrol+0x148>)
 8002184:	edd3 7a00 	vldr	s15, [r3]
 8002188:	eeb2 7a04 	vmov.f32	s14, #36	; 0x41200000  10.0
 800218c:	ee67 7a87 	vmul.f32	s15, s15, s14
 8002190:	4b3e      	ldr	r3, [pc, #248]	; (800228c <APP_vPIDcontrol+0x14c>)
 8002192:	edc3 7a00 	vstr	s15, [r3]
	APP_f32Ki = 0.0001;
 8002196:	4b3e      	ldr	r3, [pc, #248]	; (8002290 <APP_vPIDcontrol+0x150>)
 8002198:	4a3e      	ldr	r2, [pc, #248]	; (8002294 <APP_vPIDcontrol+0x154>)
 800219a:	601a      	str	r2, [r3, #0]
	/* GET CURRENT ERROR */
	APP_s32Error = APP_u16IRData[1] - APP_u16IRData[3];
 800219c:	4b38      	ldr	r3, [pc, #224]	; (8002280 <APP_vPIDcontrol+0x140>)
 800219e:	885b      	ldrh	r3, [r3, #2]
 80021a0:	461a      	mov	r2, r3
 80021a2:	4b37      	ldr	r3, [pc, #220]	; (8002280 <APP_vPIDcontrol+0x140>)
 80021a4:	88db      	ldrh	r3, [r3, #6]
 80021a6:	1ad3      	subs	r3, r2, r3
 80021a8:	4a3b      	ldr	r2, [pc, #236]	; (8002298 <APP_vPIDcontrol+0x158>)
 80021aa:	6013      	str	r3, [r2, #0]
	/* GET PID VARIABLES */
	APP_s32P = APP_s32Error;
 80021ac:	4b3a      	ldr	r3, [pc, #232]	; (8002298 <APP_vPIDcontrol+0x158>)
 80021ae:	681b      	ldr	r3, [r3, #0]
 80021b0:	4a3a      	ldr	r2, [pc, #232]	; (800229c <APP_vPIDcontrol+0x15c>)
 80021b2:	6013      	str	r3, [r2, #0]
	APP_s32I += APP_s32Error;
 80021b4:	4b3a      	ldr	r3, [pc, #232]	; (80022a0 <APP_vPIDcontrol+0x160>)
 80021b6:	681a      	ldr	r2, [r3, #0]
 80021b8:	4b37      	ldr	r3, [pc, #220]	; (8002298 <APP_vPIDcontrol+0x158>)
 80021ba:	681b      	ldr	r3, [r3, #0]
 80021bc:	4413      	add	r3, r2
 80021be:	4a38      	ldr	r2, [pc, #224]	; (80022a0 <APP_vPIDcontrol+0x160>)
 80021c0:	6013      	str	r3, [r2, #0]
	APP_s32D = APP_s32Error - APP_s32PrevError;
 80021c2:	4b35      	ldr	r3, [pc, #212]	; (8002298 <APP_vPIDcontrol+0x158>)
 80021c4:	681a      	ldr	r2, [r3, #0]
 80021c6:	4b37      	ldr	r3, [pc, #220]	; (80022a4 <APP_vPIDcontrol+0x164>)
 80021c8:	681b      	ldr	r3, [r3, #0]
 80021ca:	1ad3      	subs	r3, r2, r3
 80021cc:	4a36      	ldr	r2, [pc, #216]	; (80022a8 <APP_vPIDcontrol+0x168>)
 80021ce:	6013      	str	r3, [r2, #0]
	/* SET THE PREVIOUS ERROR */
	APP_s32PrevError = APP_s32Error;
 80021d0:	4b31      	ldr	r3, [pc, #196]	; (8002298 <APP_vPIDcontrol+0x158>)
 80021d2:	681b      	ldr	r3, [r3, #0]
 80021d4:	4a33      	ldr	r2, [pc, #204]	; (80022a4 <APP_vPIDcontrol+0x164>)
 80021d6:	6013      	str	r3, [r2, #0]
	/* CALCULATE PID VALUE */
	s32 APP_s32PID = (APP_f32Kp * APP_s32P) + (APP_f32Kd * APP_s32D) + (APP_f32Ki * APP_s32I);
 80021d8:	4b30      	ldr	r3, [pc, #192]	; (800229c <APP_vPIDcontrol+0x15c>)
 80021da:	681b      	ldr	r3, [r3, #0]
 80021dc:	ee07 3a90 	vmov	s15, r3
 80021e0:	eeb8 7ae7 	vcvt.f32.s32	s14, s15
 80021e4:	4b28      	ldr	r3, [pc, #160]	; (8002288 <APP_vPIDcontrol+0x148>)
 80021e6:	edd3 7a00 	vldr	s15, [r3]
 80021ea:	ee27 7a27 	vmul.f32	s14, s14, s15
 80021ee:	4b2e      	ldr	r3, [pc, #184]	; (80022a8 <APP_vPIDcontrol+0x168>)
 80021f0:	681b      	ldr	r3, [r3, #0]
 80021f2:	ee07 3a90 	vmov	s15, r3
 80021f6:	eef8 6ae7 	vcvt.f32.s32	s13, s15
 80021fa:	4b24      	ldr	r3, [pc, #144]	; (800228c <APP_vPIDcontrol+0x14c>)
 80021fc:	edd3 7a00 	vldr	s15, [r3]
 8002200:	ee66 7aa7 	vmul.f32	s15, s13, s15
 8002204:	ee37 7a27 	vadd.f32	s14, s14, s15
 8002208:	4b25      	ldr	r3, [pc, #148]	; (80022a0 <APP_vPIDcontrol+0x160>)
 800220a:	681b      	ldr	r3, [r3, #0]
 800220c:	ee07 3a90 	vmov	s15, r3
 8002210:	eef8 6ae7 	vcvt.f32.s32	s13, s15
 8002214:	4b1e      	ldr	r3, [pc, #120]	; (8002290 <APP_vPIDcontrol+0x150>)
 8002216:	edd3 7a00 	vldr	s15, [r3]
 800221a:	ee66 7aa7 	vmul.f32	s15, s13, s15
 800221e:	ee77 7a27 	vadd.f32	s15, s14, s15
 8002222:	eefd 7ae7 	vcvt.s32.f32	s15, s15
 8002226:	ee17 3a90 	vmov	r3, s15
 800222a:	607b      	str	r3, [r7, #4]
	APP_s32SpeedLeft = APP_AVERAGE_SPEED + APP_s32PID;
 800222c:	687b      	ldr	r3, [r7, #4]
 800222e:	f503 63fa 	add.w	r3, r3, #2000	; 0x7d0
 8002232:	461a      	mov	r2, r3
 8002234:	4b1d      	ldr	r3, [pc, #116]	; (80022ac <APP_vPIDcontrol+0x16c>)
 8002236:	601a      	str	r2, [r3, #0]
	APP_s32SpeedRight = APP_AVERAGE_SPEED - APP_s32PID;
 8002238:	687b      	ldr	r3, [r7, #4]
 800223a:	f5c3 63fa 	rsb	r3, r3, #2000	; 0x7d0
 800223e:	461a      	mov	r2, r3
 8002240:	4b1b      	ldr	r3, [pc, #108]	; (80022b0 <APP_vPIDcontrol+0x170>)
 8002242:	601a      	str	r2, [r3, #0]
	if (APP_s32SpeedLeft > APP_CAR_MOVE_FULL_FORCE) 	  { APP_s32SpeedLeft  = APP_CAR_MOVE_FULL_FORCE; }
 8002244:	4b19      	ldr	r3, [pc, #100]	; (80022ac <APP_vPIDcontrol+0x16c>)
 8002246:	681b      	ldr	r3, [r3, #0]
 8002248:	f5b3 5f80 	cmp.w	r3, #4096	; 0x1000
 800224c:	d303      	bcc.n	8002256 <APP_vPIDcontrol+0x116>
 800224e:	4b17      	ldr	r3, [pc, #92]	; (80022ac <APP_vPIDcontrol+0x16c>)
 8002250:	f640 72ff 	movw	r2, #4095	; 0xfff
 8002254:	601a      	str	r2, [r3, #0]
	else if (APP_s32SpeedLeft < APP_CAR_MOVE_ZERO_FORCE)  { APP_s32SpeedLeft  = APP_CAR_MOVE_ZERO_FORCE; }
	if (APP_s32SpeedRight > APP_CAR_MOVE_FULL_FORCE) 	  { APP_s32SpeedRight = APP_CAR_MOVE_FULL_FORCE; }
 8002256:	4b16      	ldr	r3, [pc, #88]	; (80022b0 <APP_vPIDcontrol+0x170>)
 8002258:	681b      	ldr	r3, [r3, #0]
 800225a:	f5b3 5f80 	cmp.w	r3, #4096	; 0x1000
 800225e:	d303      	bcc.n	8002268 <APP_vPIDcontrol+0x128>
 8002260:	4b13      	ldr	r3, [pc, #76]	; (80022b0 <APP_vPIDcontrol+0x170>)
 8002262:	f640 72ff 	movw	r2, #4095	; 0xfff
 8002266:	601a      	str	r2, [r3, #0]
	else if (APP_s32SpeedRight < APP_CAR_MOVE_ZERO_FORCE) { APP_s32SpeedRight = APP_CAR_MOVE_ZERO_FORCE; }
	APP_vDriveMotors(APP_CLOCK_WISE, APP_CLOCK_WISE);
 8002268:	2100      	movs	r1, #0
 800226a:	2000      	movs	r0, #0
 800226c:	f7ff fe4a 	bl	8001f04 <APP_vDriveMotors>
}
 8002270:	bf00      	nop
 8002272:	3708      	adds	r7, #8
 8002274:	46bd      	mov	sp, r7
 8002276:	bd80      	pop	{r7, pc}
 8002278:	30553261 	.word	0x30553261
 800227c:	3f43a92a 	.word	0x3f43a92a
 8002280:	20000040 	.word	0x20000040
 8002284:	408f4000 	.word	0x408f4000
 8002288:	20000068 	.word	0x20000068
 800228c:	2000006c 	.word	0x2000006c
 8002290:	20000070 	.word	0x20000070
 8002294:	38d1b717 	.word	0x38d1b717
 8002298:	20000074 	.word	0x20000074
 800229c:	2000007c 	.word	0x2000007c
 80022a0:	20000080 	.word	0x20000080
 80022a4:	20000078 	.word	0x20000078
 80022a8:	20000084 	.word	0x20000084
 80022ac:	20000058 	.word	0x20000058
 80022b0:	2000005c 	.word	0x2000005c

080022b4 <APP_vLineFollow>:
 * @brief LINE FOLLOWING CODE.
 *
 * @param None
 * @return None
 */
void APP_vLineFollow(void) {
 80022b4:	b580      	push	{r7, lr}
 80022b6:	af00      	add	r7, sp, #0
	while (true) {
		/* CONFLICT EXTREME RIGHT AND EXTREME LEFT --> (BLACK AT 0) && (BLACK AT 4) */
		if ((APP_u16IRData[0] > APP_u16IRThreshold[0]) &&
 80022b8:	4b1b      	ldr	r3, [pc, #108]	; (8002328 <APP_vLineFollow+0x74>)
 80022ba:	881a      	ldrh	r2, [r3, #0]
 80022bc:	4b1b      	ldr	r3, [pc, #108]	; (800232c <APP_vLineFollow+0x78>)
 80022be:	881b      	ldrh	r3, [r3, #0]
 80022c0:	429a      	cmp	r2, r3
 80022c2:	d905      	bls.n	80022d0 <APP_vLineFollow+0x1c>
				(APP_u16IRData[APP_IR_ARRAY_SIZE - 1] > APP_u16IRThreshold[APP_IR_ARRAY_SIZE - 1])) {
 80022c4:	4b18      	ldr	r3, [pc, #96]	; (8002328 <APP_vLineFollow+0x74>)
 80022c6:	891a      	ldrh	r2, [r3, #8]
 80022c8:	4b18      	ldr	r3, [pc, #96]	; (800232c <APP_vLineFollow+0x78>)
 80022ca:	891b      	ldrh	r3, [r3, #8]
		if ((APP_u16IRData[0] > APP_u16IRThreshold[0]) &&
 80022cc:	429a      	cmp	r2, r3
 80022ce:	d829      	bhi.n	8002324 <APP_vLineFollow+0x70>
			// TODO -- SHOULD KEEP FORWARD
			continue;
		}
		/* EXTREME RIGHT --> (WHITE AT 0 (IT IS WHITE HERE)) && (BLACK AT 4) */
		else if (APP_u16IRData[APP_IR_ARRAY_SIZE - 1] > APP_u16IRThreshold[APP_IR_ARRAY_SIZE - 1]) {
 80022d0:	4b15      	ldr	r3, [pc, #84]	; (8002328 <APP_vLineFollow+0x74>)
 80022d2:	891a      	ldrh	r2, [r3, #8]
 80022d4:	4b15      	ldr	r3, [pc, #84]	; (800232c <APP_vLineFollow+0x78>)
 80022d6:	891b      	ldrh	r3, [r3, #8]
 80022d8:	429a      	cmp	r2, r3
 80022da:	d90b      	bls.n	80022f4 <APP_vLineFollow+0x40>
			APP_s32SpeedLeft = APP_CAR_MOVE_FULL_FORCE;
 80022dc:	4b14      	ldr	r3, [pc, #80]	; (8002330 <APP_vLineFollow+0x7c>)
 80022de:	f640 72ff 	movw	r2, #4095	; 0xfff
 80022e2:	601a      	str	r2, [r3, #0]
			APP_s32SpeedRight = APP_CAR_MOVE_ZERO_FORCE;
 80022e4:	4b13      	ldr	r3, [pc, #76]	; (8002334 <APP_vLineFollow+0x80>)
 80022e6:	2200      	movs	r2, #0
 80022e8:	601a      	str	r2, [r3, #0]
			APP_vDriveMotors(APP_CLOCK_WISE, APP_CLOCK_WISE);
 80022ea:	2100      	movs	r1, #0
 80022ec:	2000      	movs	r0, #0
 80022ee:	f7ff fe09 	bl	8001f04 <APP_vDriveMotors>
			continue;
 80022f2:	e018      	b.n	8002326 <APP_vLineFollow+0x72>
		}
		/* EXTREME LEFT --> (BLACK AT 0) && (WHITE AT 4 (IT IS WHITE HERE)) */
		else if (APP_u16IRData[0] > APP_u16IRThreshold[0]) {
 80022f4:	4b0c      	ldr	r3, [pc, #48]	; (8002328 <APP_vLineFollow+0x74>)
 80022f6:	881a      	ldrh	r2, [r3, #0]
 80022f8:	4b0c      	ldr	r3, [pc, #48]	; (800232c <APP_vLineFollow+0x78>)
 80022fa:	881b      	ldrh	r3, [r3, #0]
 80022fc:	429a      	cmp	r2, r3
 80022fe:	d90b      	bls.n	8002318 <APP_vLineFollow+0x64>
			APP_s32SpeedLeft = APP_CAR_MOVE_ZERO_FORCE;
 8002300:	4b0b      	ldr	r3, [pc, #44]	; (8002330 <APP_vLineFollow+0x7c>)
 8002302:	2200      	movs	r2, #0
 8002304:	601a      	str	r2, [r3, #0]
			APP_s32SpeedRight = APP_CAR_MOVE_FULL_FORCE;
 8002306:	4b0b      	ldr	r3, [pc, #44]	; (8002334 <APP_vLineFollow+0x80>)
 8002308:	f640 72ff 	movw	r2, #4095	; 0xfff
 800230c:	601a      	str	r2, [r3, #0]
			APP_vDriveMotors(APP_CLOCK_WISE, APP_CLOCK_WISE);
 800230e:	2100      	movs	r1, #0
 8002310:	2000      	movs	r0, #0
 8002312:	f7ff fdf7 	bl	8001f04 <APP_vDriveMotors>
			continue;
 8002316:	e006      	b.n	8002326 <APP_vLineFollow+0x72>
		}
		/* NORMAL PID CONTROL */
		else if (APP_u16IRData[2] > APP_u16IRThreshold[2]) {
 8002318:	4b03      	ldr	r3, [pc, #12]	; (8002328 <APP_vLineFollow+0x74>)
 800231a:	889a      	ldrh	r2, [r3, #4]
 800231c:	4b03      	ldr	r3, [pc, #12]	; (800232c <APP_vLineFollow+0x78>)
 800231e:	889b      	ldrh	r3, [r3, #4]
 8002320:	429a      	cmp	r2, r3
 8002322:	e7c9      	b.n	80022b8 <APP_vLineFollow+0x4>
			continue;
 8002324:	bf00      	nop
		if ((APP_u16IRData[0] > APP_u16IRThreshold[0]) &&
 8002326:	e7c7      	b.n	80022b8 <APP_vLineFollow+0x4>
 8002328:	20000040 	.word	0x20000040
 800232c:	2000004c 	.word	0x2000004c
 8002330:	20000058 	.word	0x20000058
 8002334:	2000005c 	.word	0x2000005c

08002338 <APP_vMazeSolveMobile>:
 * @brief MAZE SOLVING USING MOBILE ALGORITHM CODE.
 *
 * @param None
 * @return None
 */
void APP_vMazeSolveMobile(void) {
 8002338:	b580      	push	{r7, lr}
 800233a:	b082      	sub	sp, #8
 800233c:	af00      	add	r7, sp, #0
	u32 APP_u32CurrDir = 0;
 800233e:	2300      	movs	r3, #0
 8002340:	607b      	str	r3, [r7, #4]
	while (true) {
		/* IF ANY EDGE DETECT BLACK */
		if ((APP_u16IRData[0] > APP_u16IRThreshold[0])
 8002342:	4b2e      	ldr	r3, [pc, #184]	; (80023fc <APP_vMazeSolveMobile+0xc4>)
 8002344:	881a      	ldrh	r2, [r3, #0]
 8002346:	4b2e      	ldr	r3, [pc, #184]	; (8002400 <APP_vMazeSolveMobile+0xc8>)
 8002348:	881b      	ldrh	r3, [r3, #0]
 800234a:	429a      	cmp	r2, r3
 800234c:	d805      	bhi.n	800235a <APP_vMazeSolveMobile+0x22>
				|| (APP_u16IRData[APP_IR_ARRAY_SIZE - 1] > APP_u16IRThreshold[APP_IR_ARRAY_SIZE - 1])) {
 800234e:	4b2b      	ldr	r3, [pc, #172]	; (80023fc <APP_vMazeSolveMobile+0xc4>)
 8002350:	891a      	ldrh	r2, [r3, #8]
 8002352:	4b2b      	ldr	r3, [pc, #172]	; (8002400 <APP_vMazeSolveMobile+0xc8>)
 8002354:	891b      	ldrh	r3, [r3, #8]
 8002356:	429a      	cmp	r2, r3
 8002358:	d94c      	bls.n	80023f4 <APP_vMazeSolveMobile+0xbc>
			/* CHECK DIRECTION */
			if (APP_u8DirBuffer[APP_u32CurrDir] == 'R') {
 800235a:	4a2a      	ldr	r2, [pc, #168]	; (8002404 <APP_vMazeSolveMobile+0xcc>)
 800235c:	687b      	ldr	r3, [r7, #4]
 800235e:	4413      	add	r3, r2
 8002360:	781b      	ldrb	r3, [r3, #0]
 8002362:	2b52      	cmp	r3, #82	; 0x52
 8002364:	d111      	bne.n	800238a <APP_vMazeSolveMobile+0x52>
				APP_s32SpeedLeft = APP_CAR_MOVE_FULL_FORCE;
 8002366:	4b28      	ldr	r3, [pc, #160]	; (8002408 <APP_vMazeSolveMobile+0xd0>)
 8002368:	f640 72ff 	movw	r2, #4095	; 0xfff
 800236c:	601a      	str	r2, [r3, #0]
				APP_s32SpeedRight = APP_CAR_MOVE_ZERO_FORCE;
 800236e:	4b27      	ldr	r3, [pc, #156]	; (800240c <APP_vMazeSolveMobile+0xd4>)
 8002370:	2200      	movs	r2, #0
 8002372:	601a      	str	r2, [r3, #0]
				APP_vDriveMotors(APP_CLOCK_WISE, APP_CLOCK_WISE);
 8002374:	2100      	movs	r1, #0
 8002376:	2000      	movs	r0, #0
 8002378:	f7ff fdc4 	bl	8001f04 <APP_vDriveMotors>
				for (u8 c = 0; c < APP_TURN_THRESHOLD; c++) { __asm volatile("NOP"); }
 800237c:	2300      	movs	r3, #0
 800237e:	70fb      	strb	r3, [r7, #3]
 8002380:	bf00      	nop
 8002382:	78fb      	ldrb	r3, [r7, #3]
 8002384:	3301      	adds	r3, #1
 8002386:	70fb      	strb	r3, [r7, #3]
 8002388:	e7fa      	b.n	8002380 <APP_vMazeSolveMobile+0x48>
			} else if (APP_u8DirBuffer[APP_u32CurrDir] == 'L') {
 800238a:	4a1e      	ldr	r2, [pc, #120]	; (8002404 <APP_vMazeSolveMobile+0xcc>)
 800238c:	687b      	ldr	r3, [r7, #4]
 800238e:	4413      	add	r3, r2
 8002390:	781b      	ldrb	r3, [r3, #0]
 8002392:	2b4c      	cmp	r3, #76	; 0x4c
 8002394:	d111      	bne.n	80023ba <APP_vMazeSolveMobile+0x82>
				APP_s32SpeedLeft = APP_CAR_MOVE_ZERO_FORCE;
 8002396:	4b1c      	ldr	r3, [pc, #112]	; (8002408 <APP_vMazeSolveMobile+0xd0>)
 8002398:	2200      	movs	r2, #0
 800239a:	601a      	str	r2, [r3, #0]
				APP_s32SpeedRight = APP_CAR_MOVE_FULL_FORCE;
 800239c:	4b1b      	ldr	r3, [pc, #108]	; (800240c <APP_vMazeSolveMobile+0xd4>)
 800239e:	f640 72ff 	movw	r2, #4095	; 0xfff
 80023a2:	601a      	str	r2, [r3, #0]
				APP_vDriveMotors(APP_CLOCK_WISE, APP_CLOCK_WISE);
 80023a4:	2100      	movs	r1, #0
 80023a6:	2000      	movs	r0, #0
 80023a8:	f7ff fdac 	bl	8001f04 <APP_vDriveMotors>
				for (u8 c = 0; c < APP_TURN_THRESHOLD; c++) { __asm volatile("NOP"); }
 80023ac:	2300      	movs	r3, #0
 80023ae:	70bb      	strb	r3, [r7, #2]
 80023b0:	bf00      	nop
 80023b2:	78bb      	ldrb	r3, [r7, #2]
 80023b4:	3301      	adds	r3, #1
 80023b6:	70bb      	strb	r3, [r7, #2]
 80023b8:	e7fa      	b.n	80023b0 <APP_vMazeSolveMobile+0x78>
			} else if (APP_u8DirBuffer[APP_u32CurrDir] == 'F') {
 80023ba:	4a12      	ldr	r2, [pc, #72]	; (8002404 <APP_vMazeSolveMobile+0xcc>)
 80023bc:	687b      	ldr	r3, [r7, #4]
 80023be:	4413      	add	r3, r2
 80023c0:	781b      	ldrb	r3, [r3, #0]
 80023c2:	2b46      	cmp	r3, #70	; 0x46
 80023c4:	d112      	bne.n	80023ec <APP_vMazeSolveMobile+0xb4>
				APP_s32SpeedLeft = APP_CAR_MOVE_FULL_FORCE;
 80023c6:	4b10      	ldr	r3, [pc, #64]	; (8002408 <APP_vMazeSolveMobile+0xd0>)
 80023c8:	f640 72ff 	movw	r2, #4095	; 0xfff
 80023cc:	601a      	str	r2, [r3, #0]
				APP_s32SpeedRight = APP_CAR_MOVE_FULL_FORCE;
 80023ce:	4b0f      	ldr	r3, [pc, #60]	; (800240c <APP_vMazeSolveMobile+0xd4>)
 80023d0:	f640 72ff 	movw	r2, #4095	; 0xfff
 80023d4:	601a      	str	r2, [r3, #0]
				APP_vDriveMotors(APP_CLOCK_WISE, APP_CLOCK_WISE);
 80023d6:	2100      	movs	r1, #0
 80023d8:	2000      	movs	r0, #0
 80023da:	f7ff fd93 	bl	8001f04 <APP_vDriveMotors>
				for (u8 c = 0; c < APP_TURN_THRESHOLD; c++) { __asm volatile("NOP"); }
 80023de:	2300      	movs	r3, #0
 80023e0:	707b      	strb	r3, [r7, #1]
 80023e2:	bf00      	nop
 80023e4:	787b      	ldrb	r3, [r7, #1]
 80023e6:	3301      	adds	r3, #1
 80023e8:	707b      	strb	r3, [r7, #1]
 80023ea:	e7fa      	b.n	80023e2 <APP_vMazeSolveMobile+0xaa>
			}
			/* INCREMENT COUNTER */
			APP_u32CurrDir++;
 80023ec:	687b      	ldr	r3, [r7, #4]
 80023ee:	3301      	adds	r3, #1
 80023f0:	607b      	str	r3, [r7, #4]
 80023f2:	e001      	b.n	80023f8 <APP_vMazeSolveMobile+0xc0>
		} else {
			/* NORMAL PID CONTROL */
			APP_vPIDcontrol();
 80023f4:	f7ff fea4 	bl	8002140 <APP_vPIDcontrol>
		if ((APP_u16IRData[0] > APP_u16IRThreshold[0])
 80023f8:	e7a3      	b.n	8002342 <APP_vMazeSolveMobile+0xa>
 80023fa:	bf00      	nop
 80023fc:	20000040 	.word	0x20000040
 8002400:	2000004c 	.word	0x2000004c
 8002404:	20000060 	.word	0x20000060
 8002408:	20000058 	.word	0x20000058
 800240c:	2000005c 	.word	0x2000005c

08002410 <APP_vMazeSolveRobot>:
 * @brief MAZE SOLVING USING ROBOT ALGORITHM CODE.
 *
 * @param None
 * @return None
 */
void APP_vMazeSolveRobot(void) {
 8002410:	b480      	push	{r7}
 8002412:	af00      	add	r7, sp, #0
	// TODO -- IMPLEMENT MAZE SOLVING ROBOT ALGORTHIM
	while (true) {
 8002414:	e7fe      	b.n	8002414 <APP_vMazeSolveRobot+0x4>
	...

08002418 <Reset_Handler>:

  .section .text.Reset_Handler
  .weak Reset_Handler
  .type Reset_Handler, %function
Reset_Handler:
  ldr   r0, =_estack
 8002418:	480d      	ldr	r0, [pc, #52]	; (8002450 <LoopForever+0x2>)
  mov   sp, r0          /* set stack pointer */
 800241a:	4685      	mov	sp, r0
/* Call the clock system initialization function.*/
  bl  SystemInit
 800241c:	f3af 8000 	nop.w

/* Copy the data segment initializers from flash to SRAM */
  ldr r0, =_sdata
 8002420:	480c      	ldr	r0, [pc, #48]	; (8002454 <LoopForever+0x6>)
  ldr r1, =_edata
 8002422:	490d      	ldr	r1, [pc, #52]	; (8002458 <LoopForever+0xa>)
  ldr r2, =_sidata
 8002424:	4a0d      	ldr	r2, [pc, #52]	; (800245c <LoopForever+0xe>)
  movs r3, #0
 8002426:	2300      	movs	r3, #0
  b LoopCopyDataInit
 8002428:	e002      	b.n	8002430 <LoopCopyDataInit>

0800242a <CopyDataInit>:

CopyDataInit:
  ldr r4, [r2, r3]
 800242a:	58d4      	ldr	r4, [r2, r3]
  str r4, [r0, r3]
 800242c:	50c4      	str	r4, [r0, r3]
  adds r3, r3, #4
 800242e:	3304      	adds	r3, #4

08002430 <LoopCopyDataInit>:

LoopCopyDataInit:
  adds r4, r0, r3
 8002430:	18c4      	adds	r4, r0, r3
  cmp r4, r1
 8002432:	428c      	cmp	r4, r1
  bcc CopyDataInit
 8002434:	d3f9      	bcc.n	800242a <CopyDataInit>

/* Zero fill the bss segment. */
  ldr r2, =_sbss
 8002436:	4a0a      	ldr	r2, [pc, #40]	; (8002460 <LoopForever+0x12>)
  ldr r4, =_ebss
 8002438:	4c0a      	ldr	r4, [pc, #40]	; (8002464 <LoopForever+0x16>)
  movs r3, #0
 800243a:	2300      	movs	r3, #0
  b LoopFillZerobss
 800243c:	e001      	b.n	8002442 <LoopFillZerobss>

0800243e <FillZerobss>:

FillZerobss:
  str  r3, [r2]
 800243e:	6013      	str	r3, [r2, #0]
  adds r2, r2, #4
 8002440:	3204      	adds	r2, #4

08002442 <LoopFillZerobss>:

LoopFillZerobss:
  cmp r2, r4
 8002442:	42a2      	cmp	r2, r4
  bcc FillZerobss
 8002444:	d3fb      	bcc.n	800243e <FillZerobss>

/* Call static constructors */
  bl __libc_init_array
 8002446:	f000 f811 	bl	800246c <__libc_init_array>
/* Call the application's entry point.*/
  bl main
 800244a:	f7ff fb59 	bl	8001b00 <main>

0800244e <LoopForever>:

LoopForever:
  b LoopForever
 800244e:	e7fe      	b.n	800244e <LoopForever>
  ldr   r0, =_estack
 8002450:	20010000 	.word	0x20010000
  ldr r0, =_sdata
 8002454:	20000000 	.word	0x20000000
  ldr r1, =_edata
 8002458:	20000000 	.word	0x20000000
  ldr r2, =_sidata
 800245c:	080024f8 	.word	0x080024f8
  ldr r2, =_sbss
 8002460:	20000000 	.word	0x20000000
  ldr r4, =_ebss
 8002464:	20000088 	.word	0x20000088

08002468 <ADC_IRQHandler>:
 * @retval : None
*/
  .section .text.Default_Handler,"ax",%progbits
Default_Handler:
Infinite_Loop:
  b Infinite_Loop
 8002468:	e7fe      	b.n	8002468 <ADC_IRQHandler>
	...

0800246c <__libc_init_array>:
 800246c:	b570      	push	{r4, r5, r6, lr}
 800246e:	4d0d      	ldr	r5, [pc, #52]	; (80024a4 <__libc_init_array+0x38>)
 8002470:	4c0d      	ldr	r4, [pc, #52]	; (80024a8 <__libc_init_array+0x3c>)
 8002472:	1b64      	subs	r4, r4, r5
 8002474:	10a4      	asrs	r4, r4, #2
 8002476:	2600      	movs	r6, #0
 8002478:	42a6      	cmp	r6, r4
 800247a:	d109      	bne.n	8002490 <__libc_init_array+0x24>
 800247c:	4d0b      	ldr	r5, [pc, #44]	; (80024ac <__libc_init_array+0x40>)
 800247e:	4c0c      	ldr	r4, [pc, #48]	; (80024b0 <__libc_init_array+0x44>)
 8002480:	f000 f818 	bl	80024b4 <_init>
 8002484:	1b64      	subs	r4, r4, r5
 8002486:	10a4      	asrs	r4, r4, #2
 8002488:	2600      	movs	r6, #0
 800248a:	42a6      	cmp	r6, r4
 800248c:	d105      	bne.n	800249a <__libc_init_array+0x2e>
 800248e:	bd70      	pop	{r4, r5, r6, pc}
 8002490:	f855 3b04 	ldr.w	r3, [r5], #4
 8002494:	4798      	blx	r3
 8002496:	3601      	adds	r6, #1
 8002498:	e7ee      	b.n	8002478 <__libc_init_array+0xc>
 800249a:	f855 3b04 	ldr.w	r3, [r5], #4
 800249e:	4798      	blx	r3
 80024a0:	3601      	adds	r6, #1
 80024a2:	e7f2      	b.n	800248a <__libc_init_array+0x1e>
 80024a4:	080024f0 	.word	0x080024f0
 80024a8:	080024f0 	.word	0x080024f0
 80024ac:	080024f0 	.word	0x080024f0
 80024b0:	080024f4 	.word	0x080024f4

080024b4 <_init>:
 80024b4:	b5f8      	push	{r3, r4, r5, r6, r7, lr}
 80024b6:	bf00      	nop
 80024b8:	bcf8      	pop	{r3, r4, r5, r6, r7}
 80024ba:	bc08      	pop	{r3}
 80024bc:	469e      	mov	lr, r3
 80024be:	4770      	bx	lr

080024c0 <_fini>:
 80024c0:	b5f8      	push	{r3, r4, r5, r6, r7, lr}
 80024c2:	bf00      	nop
 80024c4:	bcf8      	pop	{r3, r4, r5, r6, r7}
 80024c6:	bc08      	pop	{r3}
 80024c8:	469e      	mov	lr, r3
 80024ca:	4770      	bx	lr
